
/home1/edison_shih/thor/trunk-8.1/DTE_Bootcode/bin/../out/dte_bootcode-00.00.elf:     file format elf64-littleaarch64

Sections:
Idx Name          Size      VMA               LMA               File off  Algn
  0 .text         00009a30  0000000003000000  0000000003000000  00010000  2**11
                  CONTENTS, ALLOC, LOAD, READONLY, CODE
  1 .rodata       00000938  0000000003009a30  0000000003009a30  00019a30  2**3
                  CONTENTS, ALLOC, LOAD, READONLY, DATA
  2 .data         00000428  000000000300a368  000000000300a368  0001a368  2**3
                  CONTENTS, ALLOC, LOAD, DATA
  3 .bss          00001ff0  000000000300a790  000000000300a790  0001a790  2**3
                  ALLOC
  4 .debug_line   00003f9d  0000000000000000  0000000000000000  0001a790  2**0
                  CONTENTS, READONLY, DEBUGGING
  5 .debug_info   0000c66d  0000000000000000  0000000000000000  0001e72d  2**0
                  CONTENTS, READONLY, DEBUGGING
  6 .debug_abbrev 000030ac  0000000000000000  0000000000000000  0002ad9a  2**0
                  CONTENTS, READONLY, DEBUGGING
  7 .debug_aranges 00000520  0000000000000000  0000000000000000  0002de50  2**4
                  CONTENTS, READONLY, DEBUGGING
  8 .debug_loc    0000bb70  0000000000000000  0000000000000000  0002e370  2**0
                  CONTENTS, READONLY, DEBUGGING
  9 .debug_str    00002b47  0000000000000000  0000000000000000  00039ee0  2**0
                  CONTENTS, READONLY, DEBUGGING
 10 .comment      00000043  0000000000000000  0000000000000000  0003ca27  2**0
                  CONTENTS, READONLY
 11 .debug_frame  00001ac0  0000000000000000  0000000000000000  0003ca70  2**3
                  CONTENTS, READONLY, DEBUGGING
 12 .debug_ranges 00000e00  0000000000000000  0000000000000000  0003e530  2**0
                  CONTENTS, READONLY, DEBUGGING

Disassembly of section .text:

0000000003000000 <dte_bootcode_start>:
.global dte_bootcode_start
.type dte_bootcode_start, @function
dte_bootcode_start:

	// identify core ID (A55: core ID in Aff1)
	mrs	x19, MPIDR_EL1
 3000000:	d53800b3 	mrs	x19, mpidr_el1
	ubfx	x19, x19, MPIDR_EL1_AFF1_LSB, MPIDR_EL1_AFF_WIDTH
 3000004:	d3483e73 	ubfx	x19, x19, #8, #8
	cbnz	x19, not_primary_core
 3000008:	b50000f3 	cbnz	x19, 3000024 <not_primary_core>

	// program the VBARs
	ldr	x1, lit_el1_vectors
 300000c:	580000e1 	ldr	x1, 3000028 <lit_el1_vectors>
	msr	VBAR_EL1, x1
 3000010:	d518c001 	msr	vbar_el1, x1

	bl	clear_bss_section
 3000014:	9400264a 	bl	300993c <clear_bss_section>

	// setup stack
	ldr	x0, =_stack_base
 3000018:	580000c0 	ldr	x0, 3000030 <lit_el1_vectors+0x8>
	mov	sp, x0
 300001c:	9100001f 	mov	sp, x0

	// load DTE_Bootcode_RTK (should never return)
	bl	c_entry
 3000020:	940000c1 	bl	3000324 <c_entry>

0000000003000024 <not_primary_core>:
not_primary_core:
#ifdef ENV_SIMULATION
	bl	simulation_result_fail
#endif
1:
	b	1b
 3000024:	14000000 	b	3000024 <not_primary_core>

0000000003000028 <lit_el1_vectors>:
 3000028:	03008000 	.word	0x03008000
 300002c:	00000000 	.word	0x00000000
 3000030:	0300d780 	.word	0x0300d780
 3000034:	00000000 	.word	0x00000000

0000000003000038 <sys_dcache_flush_all>:
void sys_dcache_flush_all()
{
	extern void __asm_flush_dcache_all();
    extern unsigned int sys_bisr_done;

    if (sys_bisr_done == 0)
 3000038:	d0000040 	adrp	x0, 300a000 <__FUNCTION__.3108+0x3d8>
 300003c:	b9479800 	ldr	w0, [x0,#1944]
 3000040:	35000040 	cbnz	w0, 3000048 <sys_dcache_flush_all+0x10>
        return;

	__asm_flush_dcache_all();
}
 3000044:	d65f03c0 	ret
    extern unsigned int sys_bisr_done;

    if (sys_bisr_done == 0)
        return;

	__asm_flush_dcache_all();
 3000048:	1400261f 	b	30098c4 <__asm_flush_dcache_all>

000000000300004c <sys_dcache_flush_MVA>:
	extern void __asm_flush_dcache_range(UINT32 start_adr, UINT32 end_adr);
    UINT32 i=0;
    UINT32* addr=NULL;
    extern unsigned int sys_bisr_done;

    if (sys_bisr_done == 0)
 300004c:	d0000042 	adrp	x2, 300a000 <__FUNCTION__.3108+0x3d8>
 3000050:	b9479842 	ldr	w2, [x2,#1944]
    icache cache line size : 32B
    dcache cache line size : 64B
    L2 : 64B
  */
void sys_dcache_flush_MVA(UINT32 start_adr, UINT32 end_adr)
{
 3000054:	a9bf7bf3 	stp	x19, x30, [sp,#-16]!
	extern void __asm_flush_dcache_range(UINT32 start_adr, UINT32 end_adr);
    UINT32 i=0;
    UINT32* addr=NULL;
    extern unsigned int sys_bisr_done;

    if (sys_bisr_done == 0)
 3000058:	34000162 	cbz	w2, 3000084 <sys_dcache_flush_MVA+0x38>
        return;

    CP15DSB;
 300005c:	d5033f9f 	dsb	sy
}
#endif // ENABLE_MMU

void sync(void)
{
    CP15DMB;
 3000060:	d5033fbf 	dmb	sy
    //1295 rbus sync register
    REG32(0x9801A020) = 0x0;
 3000064:	d2940413 	mov	x19, #0xa020                	// #40992
 3000068:	f2b30033 	movk	x19, #0x9801, lsl #16
 300006c:	b900027f 	str	wzr, [x19]
    CP15DMB;
 3000070:	d5033fbf 	dmb	sy
    if (sys_bisr_done == 0)
        return;

    CP15DSB;
    sync();
   	__asm_flush_dcache_range(start_adr, end_adr);
 3000074:	9400261e 	bl	30098ec <__asm_flush_dcache_range>
}
#endif // ENABLE_MMU

void sync(void)
{
    CP15DMB;
 3000078:	d5033fbf 	dmb	sy
    //1295 rbus sync register
    REG32(0x9801A020) = 0x0;
 300007c:	b900027f 	str	wzr, [x19]
    CP15DMB;
 3000080:	d5033fbf 	dmb	sy

    CP15DSB;
    sync();
   	__asm_flush_dcache_range(start_adr, end_adr);
    sync();
}
 3000084:	a8c17bf3 	ldp	x19, x30, [sp],#16
 3000088:	d65f03c0 	ret

000000000300008c <enable_dcache>:
		__asm_invalidate_tlb_all();
	}
}

void enable_dcache()
{
 300008c:	f81f0ffe 	str	x30, [sp,#-16]!
//#define MMU_DEBUG

static inline UINT32 get_SCTLR_EL3(void)
{
        UINT64 val;
        asm volatile("MRS %0, SCTLR_EL3" : "=r" (val) : : );
 3000090:	d53e1000 	mrs	x0, sctlr_el3
	extern void __asm_invalidate_tlb_all();
	//extern void enable_l2dcache();

	//1. enable d-cache
    reg32 = get_SCTLR_EL3();	/* get control reg. */
    reg32 |= SCTLR_EL3_C;	// enable d-cache
 3000094:	321e0000 	orr	w0, w0, #0x4
        return val;
}

static inline void set_SCTLR_EL3(UINT32 val)
{
        asm volatile("MSR SCTLR_EL3, %0" : : "r" (val) : "cc");
 3000098:	d51e1000 	msr	sctlr_el3, x0
		CP15ISB;
 300009c:	d5033fdf 	isb
        #if 0
        /* copro seems to need some delay between reading and writing */
        for (i = 0; i < 100; i++)
                nop();
        #else
        func_nop(0,0,0,100);
 30000a0:	52800c83 	mov	w3, #0x64                  	// #100
 30000a4:	52800002 	mov	w2, #0x0                   	// #0
 30000a8:	52800001 	mov	w1, #0x0                   	// #0
 30000ac:	52800000 	mov	w0, #0x0                   	// #0
 30000b0:	9400262a 	bl	3009958 <func_nop>
    reg32 = get_SCTLR_EL3();	/* get control reg. */
    reg32 |= SCTLR_EL3_C;	// enable d-cache
    set_SCTLR_EL3(reg32);
    cp_delay();

	__asm_invalidate_dcache_all();
 30000b4:	94002609 	bl	30098d8 <__asm_invalidate_dcache_all>


	//no standalone switch for l2 cache
	//2. enable L2 D$ while mmu is disabled
	//enable_l2dcache();
}
 30000b8:	f84107fe 	ldr	x30, [sp],#16
    reg32 |= SCTLR_EL3_C;	// enable d-cache
    set_SCTLR_EL3(reg32);
    cp_delay();

	__asm_invalidate_dcache_all();
	__asm_invalidate_tlb_all();
 30000bc:	1400261c 	b	300992c <__asm_invalidate_tlb_all>

00000000030000c0 <enable_mmu_cache>:
{
	return get_SCTLR_EL3() & SCTLR_EL3_M;
}

void enable_mmu_cache(UINT32 bdcache)
{
 30000c0:	a9be53f3 	stp	x19, x20, [sp,#-32]!
 30000c4:	2a0003f3 	mov	w19, w0
 30000c8:	f9000bfe 	str	x30, [sp,#16]
//#define MMU_DEBUG

static inline UINT32 get_SCTLR_EL3(void)
{
        UINT64 val;
        asm volatile("MRS %0, SCTLR_EL3" : "=r" (val) : : );
 30000cc:	d53e1014 	mrs	x20, sctlr_el3
	extern void __asm_invalidate_tlb_all();
	extern void __asm_flush_dcache_all();

    //1. enable i-cache first
	reg32 = get_SCTLR_EL3();	/* get control reg. */
    reg32 |= SCTLR_EL3_I;	// enable i-cache
 30000d0:	32140280 	orr	w0, w20, #0x1000
        return val;
}

static inline void set_SCTLR_EL3(UINT32 val)
{
        asm volatile("MSR SCTLR_EL3, %0" : : "r" (val) : "cc");
 30000d4:	d51e1000 	msr	sctlr_el3, x0
		CP15ISB;
 30000d8:	d5033fdf 	isb
        #if 0
        /* copro seems to need some delay between reading and writing */
        for (i = 0; i < 100; i++)
                nop();
        #else
        func_nop(0,0,0,100);
 30000dc:	52800c83 	mov	w3, #0x64                  	// #100
 30000e0:	52800002 	mov	w2, #0x0                   	// #0
 30000e4:	52800001 	mov	w1, #0x0                   	// #0
 30000e8:	52800000 	mov	w0, #0x0                   	// #0
 30000ec:	9400261b 	bl	3009958 <func_nop>
    //1. enable i-cache first
	reg32 = get_SCTLR_EL3();	/* get control reg. */
    reg32 |= SCTLR_EL3_I;	// enable i-cache
    set_SCTLR_EL3(reg32);
	cp_delay();
	__asm_invalidate_icache_all();
 30000f0:	9400260c 	bl	3009920 <__asm_invalidate_icache_all>
	__asm_invalidate_tlb_all();
 30000f4:	9400260e 	bl	300992c <__asm_invalidate_tlb_all>
//#define MMU_DEBUG

static inline UINT32 get_SCTLR_EL3(void)
{
        UINT64 val;
        asm volatile("MRS %0, SCTLR_EL3" : "=r" (val) : : );
 30000f8:	d53e1000 	mrs	x0, sctlr_el3
	cp_delay();
	__asm_invalidate_icache_all();
	__asm_invalidate_tlb_all();

	//2. setup mmu page table
    if (!mmu_enabled()){
 30000fc:	36000260 	tbz	w0, #0, 3000148 <enable_mmu_cache+0x88>
	    mmu_setup();
    }

	//3. setup d-cache
	/* The data cache is not active unless the mmu is enabled too */
    if (bdcache)
 3000100:	35000cf3 	cbnz	w19, 300029c <enable_mmu_cache+0x1dc>
    {
		enable_dcache();
    }
	else{
		/* if dcache isn't enabled no need to disable */
		if ((reg32 & SCTLR_EL3_C) != SCTLR_EL3_C)
 3000104:	37100094 	tbnz	w20, #2, 3000114 <enable_mmu_cache+0x54>
		set_SCTLR_EL3(reg32 & ~cache_bit);
		cp_delay();
		__asm_flush_dcache_all();
		__asm_invalidate_tlb_all();
	}
}
 3000108:	f9400bfe 	ldr	x30, [sp,#16]
 300010c:	a8c253f3 	ldp	x19, x20, [sp],#32
 3000110:	d65f03c0 	ret
	else{
		/* if dcache isn't enabled no need to disable */
		if ((reg32 & SCTLR_EL3_C) != SCTLR_EL3_C)
			return;
		cache_bit |= SCTLR_EL3_C;
		set_SCTLR_EL3(reg32 & ~cache_bit);
 3000114:	121d7a80 	and	w0, w20, #0xfffffffb
 3000118:	32140000 	orr	w0, w0, #0x1000
        return val;
}

static inline void set_SCTLR_EL3(UINT32 val)
{
        asm volatile("MSR SCTLR_EL3, %0" : : "r" (val) : "cc");
 300011c:	d51e1000 	msr	sctlr_el3, x0
		CP15ISB;
 3000120:	d5033fdf 	isb
        #if 0
        /* copro seems to need some delay between reading and writing */
        for (i = 0; i < 100; i++)
                nop();
        #else
        func_nop(0,0,0,100);
 3000124:	52800c83 	mov	w3, #0x64                  	// #100
 3000128:	52800002 	mov	w2, #0x0                   	// #0
 300012c:	52800001 	mov	w1, #0x0                   	// #0
 3000130:	52800000 	mov	w0, #0x0                   	// #0
 3000134:	94002609 	bl	3009958 <func_nop>
		if ((reg32 & SCTLR_EL3_C) != SCTLR_EL3_C)
			return;
		cache_bit |= SCTLR_EL3_C;
		set_SCTLR_EL3(reg32 & ~cache_bit);
		cp_delay();
		__asm_flush_dcache_all();
 3000138:	940025e3 	bl	30098c4 <__asm_flush_dcache_all>
		__asm_invalidate_tlb_all();
	}
}
 300013c:	f9400bfe 	ldr	x30, [sp,#16]
 3000140:	a8c253f3 	ldp	x19, x20, [sp],#32
			return;
		cache_bit |= SCTLR_EL3_C;
		set_SCTLR_EL3(reg32 & ~cache_bit);
		cp_delay();
		__asm_flush_dcache_all();
		__asm_invalidate_tlb_all();
 3000144:	140025fa 	b	300992c <__asm_invalidate_tlb_all>
#endif
	//Set Memory Attribute Indirection Register
	//attr 0 ->11111111, Normal, outer/inner Write-back Allocate
	//attr 1 ->00000000, Device, Device-nGnRnE memory
	reg = 0x00FF;
	asm volatile("MSR MAIR_EL3, %0" : : "r" (reg) : "cc");
 3000148:	d2801fe0 	mov	x0, #0xff                  	// #255
 300014c:	d51ea200 	msr	mair_el3, x0
	CP15ISB;
 3000150:	d5033fdf 	isb
	//ORGN0: 01 Normal memory, Inner Write-Back Write-Allocate Cacheable.
	//SH:	 10 outer sharable
	//TG0:	 00 Granule size = 4KB
	//PS:	 00->32 bit 4G
	reg32 = 0x2520;
	asm volatile("MSR TCR_EL3, %0" : : "r" (reg32) : "cc");
 3000154:	5284a400 	mov	w0, #0x2520                	// #9504
 3000158:	d51e2040 	msr	tcr_el3, x0
	CP15ISB;
 300015c:	d5033fdf 	isb
}
#endif // ENABLE_MMU

void sync(void)
{
    CP15DMB;
 3000160:	d5033fbf 	dmb	sy
    //1295 rbus sync register
    REG32(0x9801A020) = 0x0;
 3000164:	d2940400 	mov	x0, #0xa020                	// #40992
 3000168:	f2b30020 	movk	x0, #0x9801, lsl #16
 300016c:	b900001f 	str	wzr, [x0]
    CP15DMB;
 3000170:	d5033fbf 	dmb	sy

	//2. init page table
	//32 bit VA=>PA, VA=PA, AArch64 long descritpor
	//TTBR0_EL3 range [32:5], level table only has 4 entries (32 byte)
	addr = PAGE_TBL_ADDR & ~(0x0000001F);
	asm volatile("MSR TTBR0_EL3, %0" : : "r"(addr): "cc");
 3000174:	d2b00020 	mov	x0, #0x80010000            	// #2147549184
 3000178:	d51e2000 	msr	ttbr0_el3, x0
	CP15ISB;
 300017c:	d5033fdf 	isb
#ifdef MMU_DEBUG
	prints("\nM3:");
#endif
	//Level 1
	page_table[0] =	(addr + 0x1000) | 0x03;
	page_table[1] =	(addr + 0x2000) | 0x03;
 3000180:	d2800105 	mov	x5, #0x8                   	// #8
 3000184:	f2b00025 	movk	x5, #0x8001, lsl #16
	page_table[2] = (addr + 0x3000) | 0x03;
 3000188:	d2800203 	mov	x3, #0x10                  	// #16
 300018c:	f2b00023 	movk	x3, #0x8001, lsl #16
	page_table[3] = (addr + 0x4000) | 0x03;
 3000190:	d2800301 	mov	x1, #0x18                  	// #24
 3000194:	f2b00021 	movk	x1, #0x8001, lsl #16

#ifdef MMU_DEBUG
	prints("\nM3:");
#endif
	//Level 1
	page_table[0] =	(addr + 0x1000) | 0x03;
 3000198:	d2820067 	mov	x7, #0x1003                	// #4099
 300019c:	f2b00027 	movk	x7, #0x8001, lsl #16
 30001a0:	f9000007 	str	x7, [x0]
	page_table[1] =	(addr + 0x2000) | 0x03;
 30001a4:	d2840066 	mov	x6, #0x2003                	// #8195
 30001a8:	f2b00026 	movk	x6, #0x8001, lsl #16
 30001ac:	f90000a6 	str	x6, [x5]
	page_table[2] = (addr + 0x3000) | 0x03;
 30001b0:	d2860064 	mov	x4, #0x3003                	// #12291
 30001b4:	f2b00024 	movk	x4, #0x8001, lsl #16
		//move to i-th level2 page table
		page_table = (UINT64*)(addr + (0x1000 * i) );
		for (j = 0; j < 0x200; j++){
			oa = (i << 30) | (j << 21);
			block_descriptor =   oa | 0x1;
            if (oa >= 0x88000000 && oa <= 0x8A000000){ // Nor Flash, mem attr 1: device
 30001b8:	92b0ffe8 	mov	x8, #0xffffffff7800ffff    	// #-2281635841
	prints("\nM3:");
#endif
	//Level 1
	page_table[0] =	(addr + 0x1000) | 0x03;
	page_table[1] =	(addr + 0x2000) | 0x03;
	page_table[2] = (addr + 0x3000) | 0x03;
 30001bc:	f9000064 	str	x4, [x3]
		for (j = 0; j < 0x200; j++){
			oa = (i << 30) | (j << 21);
			block_descriptor =   oa | 0x1;
            if (oa >= 0x88000000 && oa <= 0x8A000000){ // Nor Flash, mem attr 1: device
                    block_descriptor |= (0x111 << 2);
					block_descriptor |= XN;
 30001c0:	d28088a6 	mov	x6, #0x445                 	// #1093
#endif
	//Level 1
	page_table[0] =	(addr + 0x1000) | 0x03;
	page_table[1] =	(addr + 0x2000) | 0x03;
	page_table[2] = (addr + 0x3000) | 0x03;
	page_table[3] = (addr + 0x4000) | 0x03;
 30001c4:	d2880062 	mov	x2, #0x4003                	// #16387
 30001c8:	f2b00022 	movk	x2, #0x8001, lsl #16
 30001cc:	f9000022 	str	x2, [x1]
                    block_descriptor |= (0x111 << 2);
					block_descriptor |= XN;
            }
            else if (oa == 0x98000000 ) //R-Bus, mem attr 1: device
                    block_descriptor |= (0x111  << 2);
			else if (oa >= 0xff000000) // ARM JTAG+GIC: device
 30001d0:	d29fffec 	mov	x12, #0xffff                	// #65535
 30001d4:	f2bfdfec 	movk	x12, #0xfeff, lsl #16
 30001d8:	d282000f 	mov	x15, #0x1000                	// #4096
 30001dc:	f2b0002f 	movk	x15, #0x8001, lsl #16
#endif
	//Level 1
	page_table[0] =	(addr + 0x1000) | 0x03;
	page_table[1] =	(addr + 0x2000) | 0x03;
	page_table[2] = (addr + 0x3000) | 0x03;
	page_table[3] = (addr + 0x4000) | 0x03;
 30001e0:	d280000e 	mov	x14, #0x0                   	// #0
#endif

	//Level 2
	//move to the 0th level table address
	addr = (addr + 0x1000);
	for (i = 0; i < 4; i++){
 30001e4:	d280000d 	mov	x13, #0x0                   	// #0
		//move to i-th level2 page table
		page_table = (UINT64*)(addr + (0x1000 * i) );
		for (j = 0; j < 0x200; j++){
			oa = (i << 30) | (j << 21);
			block_descriptor =   oa | 0x1;
            if (oa >= 0x88000000 && oa <= 0x8A000000){ // Nor Flash, mem attr 1: device
 30001e8:	f2800008 	movk	x8, #0x0
 30001ec:	d2a04007 	mov	x7, #0x2000000             	// #33554432
                    block_descriptor |= (0x111 << 2);
					block_descriptor |= XN;
            }
            else if (oa == 0x98000000 ) //R-Bus, mem attr 1: device
 30001f0:	d2b3000b 	mov	x11, #0x98000000            	// #2550136832
                    block_descriptor |= (0x111  << 2);
			else if (oa >= 0xff000000) // ARM JTAG+GIC: device
					block_descriptor |= (0x111  << 2);
            else //Normal memory*/
                    block_descriptor |= (0x1D0  << 2);
 30001f4:	d280e82a 	mov	x10, #0x741                 	// #1857
					block_descriptor |= XN;
            }
            else if (oa == 0x98000000 ) //R-Bus, mem attr 1: device
                    block_descriptor |= (0x111  << 2);
			else if (oa >= 0xff000000) // ARM JTAG+GIC: device
					block_descriptor |= (0x111  << 2);
 30001f8:	d28088a9 	mov	x9, #0x445                 	// #1093
		for (j = 0; j < 0x200; j++){
			oa = (i << 30) | (j << 21);
			block_descriptor =   oa | 0x1;
            if (oa >= 0x88000000 && oa <= 0x8A000000){ // Nor Flash, mem attr 1: device
                    block_descriptor |= (0x111 << 2);
					block_descriptor |= XN;
 30001fc:	f2e00806 	movk	x6, #0x40, lsl #48
 3000200:	d36285a5 	lsl	x5, x13, #30
	//move to the 0th level table address
	addr = (addr + 0x1000);
	for (i = 0; i < 4; i++){
		//move to i-th level2 page table
		page_table = (UINT64*)(addr + (0x1000 * i) );
		for (j = 0; j < 0x200; j++){
 3000204:	d2800000 	mov	x0, #0x0                   	// #0
 3000208:	8b0f01c4 	add	x4, x14, x15
 300020c:	14000007 	b	3000228 <enable_mmu_cache+0x168>
					block_descriptor |= XN;
            }
            else if (oa == 0x98000000 ) //R-Bus, mem attr 1: device
                    block_descriptor |= (0x111  << 2);
			else if (oa >= 0xff000000) // ARM JTAG+GIC: device
					block_descriptor |= (0x111  << 2);
 3000210:	eb0c003f 	cmp	x1, x12
 3000214:	9a839042 	csel	x2, x2, x3, ls
            else //Normal memory*/
                    block_descriptor |= (0x1D0  << 2);
			page_table[j] = block_descriptor;
 3000218:	f8207882 	str	x2, [x4,x0,lsl #3]
	//move to the 0th level table address
	addr = (addr + 0x1000);
	for (i = 0; i < 4; i++){
		//move to i-th level2 page table
		page_table = (UINT64*)(addr + (0x1000 * i) );
		for (j = 0; j < 0x200; j++){
 300021c:	91000400 	add	x0, x0, #0x1
 3000220:	f108001f 	cmp	x0, #0x200
 3000224:	54000200 	b.eq	3000264 <enable_mmu_cache+0x1a4>
			oa = (i << 30) | (j << 21);
 3000228:	aa0054a1 	orr	x1, x5, x0, lsl #21
			block_descriptor =   oa | 0x1;
            if (oa >= 0x88000000 && oa <= 0x8A000000){ // Nor Flash, mem attr 1: device
 300022c:	8b080023 	add	x3, x1, x8
                    block_descriptor |= (0x111 << 2);
					block_descriptor |= XN;
 3000230:	aa060022 	orr	x2, x1, x6
		//move to i-th level2 page table
		page_table = (UINT64*)(addr + (0x1000 * i) );
		for (j = 0; j < 0x200; j++){
			oa = (i << 30) | (j << 21);
			block_descriptor =   oa | 0x1;
            if (oa >= 0x88000000 && oa <= 0x8A000000){ // Nor Flash, mem attr 1: device
 3000234:	eb07007f 	cmp	x3, x7
 3000238:	54ffff09 	b.ls	3000218 <enable_mmu_cache+0x158>
                    block_descriptor |= (0x111 << 2);
					block_descriptor |= XN;
            }
            else if (oa == 0x98000000 ) //R-Bus, mem attr 1: device
 300023c:	eb0b003f 	cmp	x1, x11
                    block_descriptor |= (0x111  << 2);
			else if (oa >= 0xff000000) // ARM JTAG+GIC: device
					block_descriptor |= (0x111  << 2);
 3000240:	aa090023 	orr	x3, x1, x9
 3000244:	aa0a0022 	orr	x2, x1, x10
			block_descriptor =   oa | 0x1;
            if (oa >= 0x88000000 && oa <= 0x8A000000){ // Nor Flash, mem attr 1: device
                    block_descriptor |= (0x111 << 2);
					block_descriptor |= XN;
            }
            else if (oa == 0x98000000 ) //R-Bus, mem attr 1: device
 3000248:	54fffe41 	b.ne	3000210 <enable_mmu_cache+0x150>
                    block_descriptor |= (0x111  << 2);
 300024c:	d28088a2 	mov	x2, #0x445                 	// #1093
 3000250:	f2b30002 	movk	x2, #0x9800, lsl #16
			else if (oa >= 0xff000000) // ARM JTAG+GIC: device
					block_descriptor |= (0x111  << 2);
            else //Normal memory*/
                    block_descriptor |= (0x1D0  << 2);
			page_table[j] = block_descriptor;
 3000254:	f8207882 	str	x2, [x4,x0,lsl #3]
	//move to the 0th level table address
	addr = (addr + 0x1000);
	for (i = 0; i < 4; i++){
		//move to i-th level2 page table
		page_table = (UINT64*)(addr + (0x1000 * i) );
		for (j = 0; j < 0x200; j++){
 3000258:	91000400 	add	x0, x0, #0x1
 300025c:	f108001f 	cmp	x0, #0x200
 3000260:	54fffe41 	b.ne	3000228 <enable_mmu_cache+0x168>
#endif

	//Level 2
	//move to the 0th level table address
	addr = (addr + 0x1000);
	for (i = 0; i < 4; i++){
 3000264:	910005ad 	add	x13, x13, #0x1
 3000268:	914005ce 	add	x14, x14, #0x1, lsl #12
 300026c:	f10011bf 	cmp	x13, #0x4
 3000270:	54fffc81 	b.ne	3000200 <enable_mmu_cache+0x140>
//#define MMU_DEBUG

static inline UINT32 get_SCTLR_EL3(void)
{
        UINT64 val;
        asm volatile("MRS %0, SCTLR_EL3" : "=r" (val) : : );
 3000274:	d53e1000 	mrs	x0, sctlr_el3
	//4. Enable MMU
#ifdef MMU_DEBUG
	prints("\nM5:");
#endif
	reg32 = get_SCTLR_EL3();	/* get control reg. */
	set_SCTLR_EL3(reg32 | SCTLR_EL3_M);
 3000278:	32000000 	orr	w0, w0, #0x1
        return val;
}

static inline void set_SCTLR_EL3(UINT32 val)
{
        asm volatile("MSR SCTLR_EL3, %0" : : "r" (val) : "cc");
 300027c:	d51e1000 	msr	sctlr_el3, x0
		CP15ISB;
 3000280:	d5033fdf 	isb
        #if 0
        /* copro seems to need some delay between reading and writing */
        for (i = 0; i < 100; i++)
                nop();
        #else
        func_nop(0,0,0,100);
 3000284:	52800c83 	mov	w3, #0x64                  	// #100
 3000288:	52800002 	mov	w2, #0x0                   	// #0
 300028c:	52800001 	mov	w1, #0x0                   	// #0
 3000290:	52800000 	mov	w0, #0x0                   	// #0
 3000294:	940025b1 	bl	3009958 <func_nop>
	    mmu_setup();
    }

	//3. setup d-cache
	/* The data cache is not active unless the mmu is enabled too */
    if (bdcache)
 3000298:	34fff373 	cbz	w19, 3000104 <enable_mmu_cache+0x44>
		set_SCTLR_EL3(reg32 & ~cache_bit);
		cp_delay();
		__asm_flush_dcache_all();
		__asm_invalidate_tlb_all();
	}
}
 300029c:	f9400bfe 	ldr	x30, [sp,#16]
 30002a0:	a8c253f3 	ldp	x19, x20, [sp],#32

	//3. setup d-cache
	/* The data cache is not active unless the mmu is enabled too */
    if (bdcache)
    {
		enable_dcache();
 30002a4:	17ffff7a 	b	300008c <enable_dcache>

00000000030002a8 <disable_mmu_cache>:
	//2. enable L2 D$ while mmu is disabled
	//enable_l2dcache();
}

void disable_mmu_cache()
{
 30002a8:	a9bf7bf3 	stp	x19, x30, [sp,#-16]!
//#define MMU_DEBUG

static inline UINT32 get_SCTLR_EL3(void)
{
        UINT64 val;
        asm volatile("MRS %0, SCTLR_EL3" : "=r" (val) : : );
 30002ac:	d53e1000 	mrs	x0, sctlr_el3
	UINT32 reg32, cache_bit=0;

	reg32 = get_SCTLR_EL3();

	//1. disable i-cache
	set_SCTLR_EL3(reg32 & ~SCTLR_EL3_I);
 30002b0:	12137800 	and	w0, w0, #0xffffefff
        return val;
}

static inline void set_SCTLR_EL3(UINT32 val)
{
        asm volatile("MSR SCTLR_EL3, %0" : : "r" (val) : "cc");
 30002b4:	d51e1000 	msr	sctlr_el3, x0
		CP15ISB;
 30002b8:	d5033fdf 	isb
        #if 0
        /* copro seems to need some delay between reading and writing */
        for (i = 0; i < 100; i++)
                nop();
        #else
        func_nop(0,0,0,100);
 30002bc:	52800c83 	mov	w3, #0x64                  	// #100
 30002c0:	52800002 	mov	w2, #0x0                   	// #0
 30002c4:	52800001 	mov	w1, #0x0                   	// #0
 30002c8:	52800000 	mov	w0, #0x0                   	// #0
 30002cc:	940025a3 	bl	3009958 <func_nop>
	reg32 = get_SCTLR_EL3();

	//1. disable i-cache
	set_SCTLR_EL3(reg32 & ~SCTLR_EL3_I);
	cp_delay();
	__asm_invalidate_icache_all();
 30002d0:	94002594 	bl	3009920 <__asm_invalidate_icache_all>
//#define MMU_DEBUG

static inline UINT32 get_SCTLR_EL3(void)
{
        UINT64 val;
        asm volatile("MRS %0, SCTLR_EL3" : "=r" (val) : : );
 30002d4:	d53e1013 	mrs	x19, sctlr_el3

	//2. disable d-cache and MMU

	cache_bit |= SCTLR_EL3_C;
	cache_bit |= SCTLR_EL3_M;
	set_SCTLR_EL3(reg32 & ~cache_bit);
 30002d8:	128000a0 	mov	w0, #0xfffffffa            	// #-6
 30002dc:	0a130000 	and	w0, w0, w19
        return val;
}

static inline void set_SCTLR_EL3(UINT32 val)
{
        asm volatile("MSR SCTLR_EL3, %0" : : "r" (val) : "cc");
 30002e0:	d51e1000 	msr	sctlr_el3, x0
		CP15ISB;
 30002e4:	d5033fdf 	isb
        #if 0
        /* copro seems to need some delay between reading and writing */
        for (i = 0; i < 100; i++)
                nop();
        #else
        func_nop(0,0,0,100);
 30002e8:	52800c83 	mov	w3, #0x64                  	// #100
 30002ec:	52800002 	mov	w2, #0x0                   	// #0
 30002f0:	52800001 	mov	w1, #0x0                   	// #0
 30002f4:	52800000 	mov	w0, #0x0                   	// #0
 30002f8:	94002598 	bl	3009958 <func_nop>
	cache_bit |= SCTLR_EL3_C;
	cache_bit |= SCTLR_EL3_M;
	set_SCTLR_EL3(reg32 & ~cache_bit);

	cp_delay();
	if (reg32 & SCTLR_EL3_C){ //only flush dcache when C bit is on
 30002fc:	36100053 	tbz	w19, #2, 3000304 <disable_mmu_cache+0x5c>
		__asm_flush_dcache_all();
 3000300:	94002571 	bl	30098c4 <__asm_flush_dcache_all>
	}
	__asm_invalidate_tlb_all();

}
 3000304:	a8c17bf3 	ldp	x19, x30, [sp],#16

	cp_delay();
	if (reg32 & SCTLR_EL3_C){ //only flush dcache when C bit is on
		__asm_flush_dcache_all();
	}
	__asm_invalidate_tlb_all();
 3000308:	14002589 	b	300992c <__asm_invalidate_tlb_all>

000000000300030c <sync>:
}
#endif // ENABLE_MMU

void sync(void)
{
    CP15DMB;
 300030c:	d5033fbf 	dmb	sy
    //1295 rbus sync register
    REG32(0x9801A020) = 0x0;
 3000310:	d2940400 	mov	x0, #0xa020                	// #40992
 3000314:	f2b30020 	movk	x0, #0x9801, lsl #16
 3000318:	b900001f 	str	wzr, [x0]
    CP15DMB;
 300031c:	d5033fbf 	dmb	sy
}
 3000320:	d65f03c0 	ret

0000000003000324 <c_entry>:
	#ifdef ENABLE_BSD
	unsigned char uart_key;
	#endif

	#ifdef FLOW_DEBUG
	printf("DTE_Bootcode: %s, %s\n", __DATE__, __TIME__);
 3000324:	b0000042 	adrp	x2, 3009000 <el3_vectors>
 3000328:	b0000041 	adrp	x1, 3009000 <el3_vectors>
 300032c:	b0000040 	adrp	x0, 3009000 <el3_vectors>
 3000330:	9130c042 	add	x2, x2, #0xc30
/*
 * This is the first C function entry point from assembly code.
 * It is responsible for loading and verifing DTE_Bootcode_RTK (LK)
 */
void c_entry(void)
{
 3000334:	a9be53f3 	stp	x19, x20, [sp,#-32]!
	#ifdef ENABLE_BSD
	unsigned char uart_key;
	#endif

	#ifdef FLOW_DEBUG
	printf("DTE_Bootcode: %s, %s\n", __DATE__, __TIME__);
 3000338:	91310021 	add	x1, x1, #0xc40
 300033c:	91314000 	add	x0, x0, #0xc50
/*
 * This is the first C function entry point from assembly code.
 * It is responsible for loading and verifing DTE_Bootcode_RTK (LK)
 */
void c_entry(void)
{
 3000340:	f9000bfe 	str	x30, [sp,#16]
 *  Function body
 ************************************************************************/
static void init_variables(void)
{
	sys_aes_mode = AES_MODE_128;
	sys_boot_flash_type = get_boot_flash_type();
 3000344:	d0000053 	adrp	x19, 300a000 <__FUNCTION__.3108+0x3d8>
	#ifdef ENABLE_BSD
	unsigned char uart_key;
	#endif

	#ifdef FLOW_DEBUG
	printf("DTE_Bootcode: %s, %s\n", __DATE__, __TIME__);
 3000348:	940002ff 	bl	3000f44 <printf>
/************************************************************************
 *  Function body
 ************************************************************************/
static void init_variables(void)
{
	sys_aes_mode = AES_MODE_128;
 300034c:	d0000040 	adrp	x0, 300a000 <__FUNCTION__.3108+0x3d8>
 3000350:	b907901f 	str	wzr, [x0,#1936]
	sys_boot_flash_type = get_boot_flash_type();
 3000354:	94000e19 	bl	3003bb8 <get_boot_flash_type>
 3000358:	b9036a60 	str	w0, [x19,#872]
	sys_is_scs_activated = is_scs_activated();
 300035c:	94000ec2 	bl	3003e64 <is_scs_activated>
 3000360:	d0000045 	adrp	x5, 300a000 <__FUNCTION__.3108+0x3d8>
	// get fw table from Aux code
	p_BootArray_FW_Table = (BootArray_FW_Table_T *)BOOTARRAY_FW_ENTRY_INFO_ADDR;
 3000364:	f0000043 	adrp	x3, 300b000 <g_nand_data_dma+0x2c0>
}

static void init_flash(void)
{
	switch (sys_boot_flash_type) {
 3000368:	b9436a61 	ldr	w1, [x19,#872]
 300036c:	52828282 	mov	w2, #0x1414                	// #5140
 3000370:	72a28282 	movk	w2, #0x1414, lsl #16
{
	sys_aes_mode = AES_MODE_128;
	sys_boot_flash_type = get_boot_flash_type();
	sys_is_scs_activated = is_scs_activated();
	// get fw table from Aux code
	p_BootArray_FW_Table = (BootArray_FW_Table_T *)BOOTARRAY_FW_ENTRY_INFO_ADDR;
 3000374:	d2a20004 	mov	x4, #0x10000000            	// #268435456
 ************************************************************************/
static void init_variables(void)
{
	sys_aes_mode = AES_MODE_128;
	sys_boot_flash_type = get_boot_flash_type();
	sys_is_scs_activated = is_scs_activated();
 3000378:	b90374a0 	str	w0, [x5,#884]
	// get fw table from Aux code
	p_BootArray_FW_Table = (BootArray_FW_Table_T *)BOOTARRAY_FW_ENTRY_INFO_ADDR;
 300037c:	f906a064 	str	x4, [x3,#3392]
}

static void init_flash(void)
{
	switch (sys_boot_flash_type) {
 3000380:	6b02003f 	cmp	w1, w2
 3000384:	540001a0 	b.eq	30003b8 <c_entry+0x94>
 3000388:	52846460 	mov	w0, #0x2323                	// #8995
 300038c:	72a46460 	movk	w0, #0x2323, lsl #16
 3000390:	6b00003f 	cmp	w1, w0
 3000394:	54000140 	b.eq	30003bc <c_entry+0x98>
 3000398:	52826260 	mov	w0, #0x1313                	// #4883
 300039c:	72a26260 	movk	w0, #0x1313, lsl #16
 30003a0:	6b00003f 	cmp	w1, w0
 30003a4:	54000440 	b.eq	300042c <c_entry+0x108>
		case NAND_FLASH_BOOT:
			nand_initial();
			break;
		default:
			#ifdef FLOW_DEBUG
			printf("unknown flash type: 0x%x\n", sys_boot_flash_type);
 30003a8:	b0000040 	adrp	x0, 3009000 <el3_vectors>
 30003ac:	9131a000 	add	x0, x0, #0xc68
 30003b0:	940002e5 	bl	3000f44 <printf>
			faultDetect();
 30003b4:	94001bc6 	bl	30072cc <faultDetect>

static void init_flash(void)
{
	switch (sys_boot_flash_type) {
		case EMMC_BOOT:
			init_card_rca();
 30003b8:	94000666 	bl	3001d50 <init_card_rca>
	#endif

	init_variables();
	init_flash();

	save_bootarray_fw_entries();
 30003bc:	940012c9 	bl	3004ee0 <save_bootarray_fw_entries>

	ret = process_dte_fw_certificate();
 30003c0:	94001358 	bl	3005120 <process_dte_fw_certificate>
 30003c4:	2a0003f4 	mov	w20, w0
	#ifdef FLOW_DEBUG
	printf("process_dte_fw_certificate: 0x%x\n", ret);
 30003c8:	b0000040 	adrp	x0, 3009000 <el3_vectors>
 30003cc:	2a1403e1 	mov	w1, w20
 30003d0:	91322000 	add	x0, x0, #0xc88
 30003d4:	940002dc 	bl	3000f44 <printf>
	#endif
	if (ret != OK) {
 30003d8:	34000094 	cbz	w20, 30003e8 <c_entry+0xc4>
	ret = process_dte_bootcode_rtk();
	#ifdef FLOW_DEBUG
	printf("process_dte_bootcode_rtk: 0x%x\n", ret);
	#endif
	if (ret != OK) {
		sys_errno = ret;
 30003dc:	910da273 	add	x19, x19, #0x368
 30003e0:	b9000674 	str	w20, [x19,#4]
		faultDetect();
 30003e4:	94001bba 	bl	30072cc <faultDetect>
	if (ret != OK) {
		sys_errno = ret;
		faultDetect();
	}

	ret = process_dte_bootcode_rtk();
 30003e8:	9400138c 	bl	3005218 <process_dte_bootcode_rtk>
 30003ec:	2a0003f4 	mov	w20, w0
	#ifdef FLOW_DEBUG
	printf("process_dte_bootcode_rtk: 0x%x\n", ret);
 30003f0:	b0000040 	adrp	x0, 3009000 <el3_vectors>
 30003f4:	2a1403e1 	mov	w1, w20
 30003f8:	9132c000 	add	x0, x0, #0xcb0
 30003fc:	940002d2 	bl	3000f44 <printf>
	#endif
	if (ret != OK) {
 3000400:	35fffef4 	cbnz	w20, 30003dc <c_entry+0xb8>
		sys_errno = ret;
		faultDetect();
	}

	#ifdef FLOW_DEBUG
	printf("jump to DTE_Bootcode_RTK: 0x%x\n", DTE_BOOTCODE_RTK_TARGET_ADDR);
 3000404:	b0000040 	adrp	x0, 3009000 <el3_vectors>
 3000408:	52a00061 	mov	w1, #0x30000               	// #196608
 300040c:	91334000 	add	x0, x0, #0xcd0
 3000410:	940002cd 	bl	3000f44 <printf>

static inline UINT32 get_chip_rev_id(){
#ifdef FORCE_IC_REV
	return (FORCE_IC_REV << 16);
#else
	return REG32(SB2_CHIP_INFO);
 3000414:	d2944080 	mov	x0, #0xa204                	// #41476
 3000418:	f2b30020 	movk	x0, #0x9801, lsl #16
 300041c:	b9400000 	ldr	w0, [x0]
	#endif
	
	if (get_chip_rev_id() > RTD161x_CHIP_REVISION_A00){
 3000420:	340000a0 	cbz	w0, 3000434 <c_entry+0x110>
		//Trap to scs_mem's EL3 vector to redirect to BL31 to have the BL31's initialization
		asm volatile("smc #0" : : : "cc");
 3000424:	d4000003 	smc	#0x0
		//shouldn't get here
		faultDetect();
 3000428:	94001ba9 	bl	30072cc <faultDetect>
			init_card_rca();
			break;
		case SPI_FLASH_BOOT:
			break;
		case NAND_FLASH_BOOT:
			nand_initial();
 300042c:	94000b74 	bl	30031fc <nand_initial>
 3000430:	17ffffe3 	b	30003bc <c_entry+0x98>
		bsd_startServer(1);
		printf("After enter bsd_startServer\n");
	}
	#endif

	prints("jump to dte_bootcode_rtk_addr \n");
 3000434:	b0000040 	adrp	x0, 3009000 <el3_vectors>
 3000438:	9133c000 	add	x0, x0, #0xcf0
	((int (*)())(UINT64)DTE_BOOTCODE_RTK_TARGET_ADDR)();

	// in case of return
	sys_errno = ERR_UNEXPECTED_RETURN;
 300043c:	910da273 	add	x19, x19, #0x368
		bsd_startServer(1);
		printf("After enter bsd_startServer\n");
	}
	#endif

	prints("jump to dte_bootcode_rtk_addr \n");
 3000440:	94001724 	bl	30060d0 <prints>
	((int (*)())(UINT64)DTE_BOOTCODE_RTK_TARGET_ADDR)();
 3000444:	d2a00060 	mov	x0, #0x30000               	// #196608
 3000448:	d63f0000 	blr	x0

	// in case of return
	sys_errno = ERR_UNEXPECTED_RETURN;
 300044c:	528013e0 	mov	w0, #0x9f                  	// #159
 3000450:	b9000660 	str	w0, [x19,#4]
	faultDetect();
 3000454:	94001b9e 	bl	30072cc <faultDetect>

0000000003000458 <Reflect>:
	}
	//crc_table_computed = 1;
}

static UINT32 Reflect(UINT32 ref, char ch)
{
 3000458:	53001c21 	uxtb	w1, w1
	UINT32 value = 0;
	int i;
	// Swap bit 0 for bit 7
	// bit 1 for bit 6, etc.
	for (i = 1; i < (ch + 1); i++)
 300045c:	340001a1 	cbz	w1, 3000490 <Reflect+0x38>
 3000460:	51000421 	sub	w1, w1, #0x1
 3000464:	52800003 	mov	w3, #0x0                   	// #0
	{
		if (ref & 1)
			value |= 1 << (ch - i);
 3000468:	52800024 	mov	w4, #0x1                   	// #1
 300046c:	1ac12082 	lsl	w2, w4, w1
 3000470:	51000421 	sub	w1, w1, #0x1
{
	UINT32 value = 0;
	int i;
	// Swap bit 0 for bit 7
	// bit 1 for bit 6, etc.
	for (i = 1; i < (ch + 1); i++)
 3000474:	3100043f 	cmn	w1, #0x1
	{
		if (ref & 1)
 3000478:	36000040 	tbz	w0, #0, 3000480 <Reflect+0x28>
			value |= 1 << (ch - i);
 300047c:	2a020063 	orr	w3, w3, w2
		ref >>= 1;
 3000480:	53017c00 	lsr	w0, w0, #1
{
	UINT32 value = 0;
	int i;
	// Swap bit 0 for bit 7
	// bit 1 for bit 6, etc.
	for (i = 1; i < (ch + 1); i++)
 3000484:	54ffff41 	b.ne	300046c <Reflect+0x14>
	if (i != (ch + 1)) // loop no completed
	{
		faultDetect();
	}
	return value;
}
 3000488:	2a0303e0 	mov	w0, w3
 300048c:	d65f03c0 	ret
	//crc_table_computed = 1;
}

static UINT32 Reflect(UINT32 ref, char ch)
{
	UINT32 value = 0;
 3000490:	52800003 	mov	w3, #0x0                   	// #0
 3000494:	17fffffd 	b	3000488 <Reflect+0x30>

0000000003000498 <crc32>:
UINT32
crc32(
    UINT8  *p,
    int	   len,
    UINT32 *crc )
{
 3000498:	a9bb53f3 	stp	x19, x20, [sp,#-80]!

	for (i = 0; i <= 0xFF; i++)
	{
		crc_table[i] = Reflect(i, 8) << 24;
		for (j = 0; j < 8; j++)
			crc_table[i] = (crc_table[i] << 1) ^ (crc_table[i] & (1 << 31) ? polynomial : 0);
 300049c:	5283b6f3 	mov	w19, #0x1db7                	// #7607
 30004a0:	72a09833 	movk	w19, #0x4c1, lsl #16
UINT32
crc32(
    UINT8  *p,
    int	   len,
    UINT32 *crc )
{
 30004a4:	a9015bf5 	stp	x21, x22, [sp,#16]
 30004a8:	a90263f7 	stp	x23, x24, [sp,#32]
 30004ac:	a9036bf9 	stp	x25, x26, [sp,#48]
 30004b0:	f90023fe 	str	x30, [sp,#64]
 30004b4:	aa0003f6 	mov	x22, x0
 30004b8:	2a0103f7 	mov	w23, w1
 30004bc:	aa0203f8 	mov	x24, x2
 30004c0:	d2800019 	mov	x25, #0x0                   	// #0
 30004c4:	d0000055 	adrp	x21, 300a000 <__FUNCTION__.3108+0x3d8>
	}
*/

	for (i = 0; i <= 0xFF; i++)
	{
		crc_table[i] = Reflect(i, 8) << 24;
 30004c8:	52800101 	mov	w1, #0x8                   	// #8
 30004cc:	2a1903e0 	mov	w0, w25
 30004d0:	d37ef734 	lsl	x20, x25, #2
 30004d4:	97ffffe1 	bl	3000458 <Reflect>
 30004d8:	53081c02 	lsl	w2, w0, #24
 30004dc:	52800101 	mov	w1, #0x8                   	// #8
		for (j = 0; j < 8; j++)
			crc_table[i] = (crc_table[i] << 1) ^ (crc_table[i] & (1 << 31) ? polynomial : 0);
 30004e0:	6b1f005f 	cmp	w2, wzr
 30004e4:	0b020042 	add	w2, w2, w2
 30004e8:	1a9fb260 	csel	w0, w19, wzr, lt
*/

	for (i = 0; i <= 0xFF; i++)
	{
		crc_table[i] = Reflect(i, 8) << 24;
		for (j = 0; j < 8; j++)
 30004ec:	71000421 	subs	w1, w1, #0x1
			crc_table[i] = (crc_table[i] << 1) ^ (crc_table[i] & (1 << 31) ? polynomial : 0);
 30004f0:	4a020002 	eor	w2, w0, w2
*/

	for (i = 0; i <= 0xFF; i++)
	{
		crc_table[i] = Reflect(i, 8) << 24;
		for (j = 0; j < 8; j++)
 30004f4:	54ffff61 	b.ne	30004e0 <crc32+0x48>
 30004f8:	911ea2ba 	add	x26, x21, #0x7a8
			crc_table[i] = (crc_table[i] << 1) ^ (crc_table[i] & (1 << 31) ? polynomial : 0);
        if (j != 8) // loop no completed
        {
            faultDetect();
        }
		crc_table[i] = Reflect(crc_table[i],  32);
 30004fc:	52800401 	mov	w1, #0x20                  	// #32
 3000500:	2a0203e0 	mov	w0, w2
 3000504:	91000739 	add	x25, x25, #0x1
 3000508:	b83a6a82 	str	w2, [x20,x26]
 300050c:	97ffffd3 	bl	3000458 <Reflect>
		}
		crc_table[n] = c;
	}
*/

	for (i = 0; i <= 0xFF; i++)
 3000510:	f104033f 	cmp	x25, #0x100
			crc_table[i] = (crc_table[i] << 1) ^ (crc_table[i] & (1 << 31) ? polynomial : 0);
        if (j != 8) // loop no completed
        {
            faultDetect();
        }
		crc_table[i] = Reflect(crc_table[i],  32);
 3000514:	b8346b40 	str	w0, [x26,x20]
		}
		crc_table[n] = c;
	}
*/

	for (i = 0; i <= 0xFF; i++)
 3000518:	54fffd81 	b.ne	30004c8 <crc32+0x30>
	// add by alan
	//if (!crc_table_computed)
	make_crc_table();

	value = 0xFFFFFFFF;
	while (cnt--) {
 300051c:	340002d7 	cbz	w23, 3000574 <crc32+0xdc>
 3000520:	510006e4 	sub	w4, w23, #0x1
 3000524:	12800002 	mov	w2, #0xffffffff            	// #-1
 3000528:	91000484 	add	x4, x4, #0x1
 300052c:	8b0402c4 	add	x4, x22, x4
		value = (value >> 8) ^ crc_table[(value & 0xFF) ^ *p++];
 3000530:	384016c1 	ldrb	w1, [x22],#1
 3000534:	12001c43 	and	w3, w2, #0xff
 3000538:	911ea2a0 	add	x0, x21, #0x7a8
 300053c:	4a010061 	eor	w1, w3, w1
	// add by alan
	//if (!crc_table_computed)
	make_crc_table();

	value = 0xFFFFFFFF;
	while (cnt--) {
 3000540:	eb0402df 	cmp	x22, x4
		value = (value >> 8) ^ crc_table[(value & 0xFF) ^ *p++];
 3000544:	b8615800 	ldr	w0, [x0,w1,uxtw #2]
 3000548:	4a422002 	eor	w2, w0, w2, lsr #8
	// add by alan
	//if (!crc_table_computed)
	make_crc_table();

	value = 0xFFFFFFFF;
	while (cnt--) {
 300054c:	54ffff21 	b.ne	3000530 <crc32+0x98>
 3000550:	2a2203e2 	mvn	w2, w2
	if (cnt > 0) // loop no completed
	{
		faultDetect();
	}

	*crc = value ^ 0xFFFFFFFF;
 3000554:	b9000302 	str	w2, [x24]

     *crc = ~(*crc);
*/

	return OK;
}
 3000558:	52800000 	mov	w0, #0x0                   	// #0
 300055c:	a9415bf5 	ldp	x21, x22, [sp,#16]
 3000560:	a94263f7 	ldp	x23, x24, [sp,#32]
 3000564:	a9436bf9 	ldp	x25, x26, [sp,#48]
 3000568:	f94023fe 	ldr	x30, [sp,#64]
 300056c:	a8c553f3 	ldp	x19, x20, [sp],#80
 3000570:	d65f03c0 	ret
	// add by alan
	//if (!crc_table_computed)
	make_crc_table();

	value = 0xFFFFFFFF;
	while (cnt--) {
 3000574:	52800002 	mov	w2, #0x0                   	// #0
	if (cnt > 0) // loop no completed
	{
		faultDetect();
	}

	*crc = value ^ 0xFFFFFFFF;
 3000578:	b9000302 	str	w2, [x24]

     *crc = ~(*crc);
*/

	return OK;
}
 300057c:	52800000 	mov	w0, #0x0                   	// #0
 3000580:	a9415bf5 	ldp	x21, x22, [sp,#16]
 3000584:	a94263f7 	ldp	x23, x24, [sp,#32]
 3000588:	a9436bf9 	ldp	x25, x26, [sp,#48]
 300058c:	f94023fe 	ldr	x30, [sp,#64]
 3000590:	a8c553f3 	ldp	x19, x20, [sp],#80
 3000594:	d65f03c0 	ret

0000000003000598 <longlong_to_string.constprop.0>:
static char *longlong_to_string(char *buf, unsigned long long n, int len, unsigned int flag)
{
	int pos = len;
	int negative = 0;

	if((flag & SIGNEDFLAG) && (long long)n < 0) {
 3000598:	36400042 	tbz	w2, #8, 30005a0 <longlong_to_string.constprop.0+0x8>
 300059c:	b7f80501 	tbnz	x1, #63, 300063c <longlong_to_string.constprop.0+0xa4>
		negative = 1;
		n = -n;
	}

	buf[--pos] = 0;
 30005a0:	39007c1f 	strb	wzr, [x0,#31]

	/* only do the math if the number is >= 10 */
	while(n >= 10) {
 30005a4:	f100243f 	cmp	x1, #0x9
 30005a8:	52800007 	mov	w7, #0x0                   	// #0
 30005ac:	540005c9 	b.ls	3000664 <longlong_to_string.constprop.0+0xcc>
		int digit = n % 10;
 30005b0:	b202e7e6 	mov	x6, #0xcccccccccccccccc    	// #-3689348814741910324
{
	int pos = len;
	int negative = 0;

	if((flag & SIGNEDFLAG) && (long long)n < 0) {
		negative = 1;
 30005b4:	528003e5 	mov	w5, #0x1f                  	// #31

	buf[--pos] = 0;

	/* only do the math if the number is >= 10 */
	while(n >= 10) {
		int digit = n % 10;
 30005b8:	910004c6 	add	x6, x6, #0x1
 30005bc:	9bc67c24 	umulh	x4, x1, x6

		n /= 10;

		buf[--pos] = digit + '0';
 30005c0:	510004a5 	sub	w5, w5, #0x1

	buf[--pos] = 0;

	/* only do the math if the number is >= 10 */
	while(n >= 10) {
		int digit = n % 10;
 30005c4:	d343fc84 	lsr	x4, x4, #3
	}

	buf[--pos] = 0;

	/* only do the math if the number is >= 10 */
	while(n >= 10) {
 30005c8:	f100249f 	cmp	x4, #0x9
		int digit = n % 10;
 30005cc:	8b040883 	add	x3, x4, x4, lsl #2
 30005d0:	8b030063 	add	x3, x3, x3
 30005d4:	cb030023 	sub	x3, x1, x3

		n /= 10;
 30005d8:	aa0403e1 	mov	x1, x4

		buf[--pos] = digit + '0';
 30005dc:	1100c063 	add	w3, w3, #0x30
 30005e0:	3825c803 	strb	w3, [x0,w5,sxtw]
	}

	buf[--pos] = 0;

	/* only do the math if the number is >= 10 */
	while(n >= 10) {
 30005e4:	54fffec8 	b.hi	30005bc <longlong_to_string.constprop.0+0x24>

		n /= 10;

		buf[--pos] = digit + '0';
	}
	buf[--pos] = n + '0';
 30005e8:	510004a3 	sub	w3, w5, #0x1
 30005ec:	1100c081 	add	w1, w4, #0x30
	while(n >= 10) {
		int digit = n % 10;

		n /= 10;

		buf[--pos] = digit + '0';
 30005f0:	2a0503e4 	mov	w4, w5
	}
	buf[--pos] = n + '0';
 30005f4:	3823c801 	strb	w1, [x0,w3,sxtw]

	if(negative)
 30005f8:	35000147 	cbnz	w7, 3000620 <longlong_to_string.constprop.0+0x88>
 30005fc:	8b23c003 	add	x3, x0, w3, sxtw
		buf[--pos] = '-';
	else if((flag & SHOWSIGNFLAG))
 3000600:	363800c2 	tbz	w2, #7, 3000618 <longlong_to_string.constprop.0+0x80>
		buf[--pos] = '+';
 3000604:	51000884 	sub	w4, w4, #0x2
 3000608:	52800561 	mov	w1, #0x2b                  	// #43
 300060c:	93407c84 	sxtw	x4, w4
 3000610:	8b040003 	add	x3, x0, x4
 3000614:	38246801 	strb	w1, [x0,x4]

	return &buf[pos];
}
 3000618:	aa0303e0 	mov	x0, x3
 300061c:	d65f03c0 	ret
 3000620:	510008a5 	sub	w5, w5, #0x2
 3000624:	93407ca5 	sxtw	x5, w5
		buf[--pos] = digit + '0';
	}
	buf[--pos] = n + '0';

	if(negative)
		buf[--pos] = '-';
 3000628:	8b050003 	add	x3, x0, x5
 300062c:	528005a1 	mov	w1, #0x2d                  	// #45
 3000630:	38256801 	strb	w1, [x0,x5]
	else if((flag & SHOWSIGNFLAG))
		buf[--pos] = '+';

	return &buf[pos];
}
 3000634:	aa0303e0 	mov	x0, x3
 3000638:	d65f03c0 	ret
	int pos = len;
	int negative = 0;

	if((flag & SIGNEDFLAG) && (long long)n < 0) {
		negative = 1;
		n = -n;
 300063c:	cb0103e1 	neg	x1, x1
	}

	buf[--pos] = 0;
 3000640:	39007c1f 	strb	wzr, [x0,#31]

	/* only do the math if the number is >= 10 */
	while(n >= 10) {
 3000644:	f100243f 	cmp	x1, #0x9
 3000648:	54000069 	b.ls	3000654 <longlong_to_string.constprop.0+0xbc>
{
	int pos = len;
	int negative = 0;

	if((flag & SIGNEDFLAG) && (long long)n < 0) {
		negative = 1;
 300064c:	52800027 	mov	w7, #0x1                   	// #1
 3000650:	17ffffd8 	b	30005b0 <longlong_to_string.constprop.0+0x18>

		n /= 10;

		buf[--pos] = digit + '0';
	}
	buf[--pos] = n + '0';
 3000654:	1100c021 	add	w1, w1, #0x30
 3000658:	d28003a5 	mov	x5, #0x1d                  	// #29
 300065c:	39007801 	strb	w1, [x0,#30]
 3000660:	17fffff2 	b	3000628 <longlong_to_string.constprop.0+0x90>
 3000664:	1100c021 	add	w1, w1, #0x30
 3000668:	528003c3 	mov	w3, #0x1e                  	// #30
 300066c:	39007801 	strb	w1, [x0,#30]
	if((flag & SIGNEDFLAG) && (long long)n < 0) {
		negative = 1;
		n = -n;
	}

	buf[--pos] = 0;
 3000670:	528003e4 	mov	w4, #0x1f                  	// #31
 3000674:	17ffffe2 	b	30005fc <longlong_to_string.constprop.0+0x64>

0000000003000678 <putchar>:
#include "utility.h"
#include "dprintf.h"
#include "uart.h"

int putchar(int c)
{
 3000678:	a9bc53f3 	stp	x19, x20, [sp,#-64]!
	int n;

	if (c == '\n') {
 300067c:	7100281f 	cmp	w0, #0xa
 3000680:	2a0003f3 	mov	w19, w0
#include "utility.h"
#include "dprintf.h"
#include "uart.h"

int putchar(int c)
{
 3000684:	f9000bfe 	str	x30, [sp,#16]
 3000688:	b9002fe0 	str	w0, [sp,#44]
	int n;

	if (c == '\n') {
 300068c:	540000e0 	b.eq	30006a8 <putchar+0x30>
		serial_write((unsigned char*)&n);
		n = 0xa;
		serial_write((unsigned char*)&n);
	}
	else {
		serial_write((unsigned char*)&c);
 3000690:	9100b3e0 	add	x0, sp, #0x2c
 3000694:	94001683 	bl	30060a0 <serial_write>
	}

	return c;
}
 3000698:	b9402fe0 	ldr	w0, [sp,#44]
 300069c:	f9400bfe 	ldr	x30, [sp,#16]
 30006a0:	a8c453f3 	ldp	x19, x20, [sp],#64
 30006a4:	d65f03c0 	ret
int putchar(int c)
{
	int n;

	if (c == '\n') {
		n = 0xd;
 30006a8:	910103f4 	add	x20, sp, #0x40
 30006ac:	528001a0 	mov	w0, #0xd                   	// #13
 30006b0:	b81fce80 	str	w0, [x20,#-4]!
		serial_write((unsigned char*)&n);
 30006b4:	aa1403e0 	mov	x0, x20
 30006b8:	9400167a 	bl	30060a0 <serial_write>
		n = 0xa;
 30006bc:	b9003ff3 	str	w19, [sp,#60]
		serial_write((unsigned char*)&n);
 30006c0:	aa1403e0 	mov	x0, x20
 30006c4:	94001677 	bl	30060a0 <serial_write>
	else {
		serial_write((unsigned char*)&c);
	}

	return c;
}
 30006c8:	b9402fe0 	ldr	w0, [sp,#44]
 30006cc:	f9400bfe 	ldr	x30, [sp,#16]
 30006d0:	a8c453f3 	ldp	x19, x20, [sp],#64
 30006d4:	d65f03c0 	ret

00000000030006d8 <puts>:

int puts(const char *str)
{
 30006d8:	f81f0ffe 	str	x30, [sp,#-16]!
	prints(str);
 30006dc:	9400167d 	bl	30060d0 <prints>
	putchar('\n'); // trailing newline
 30006e0:	52800140 	mov	w0, #0xa                   	// #10
 30006e4:	97ffffe5 	bl	3000678 <putchar>
	return 1;
}
 30006e8:	52800020 	mov	w0, #0x1                   	// #1
 30006ec:	f84107fe 	ldr	x30, [sp],#16
 30006f0:	d65f03c0 	ret

00000000030006f4 <vsnprintf>:
{
	return vsnprintf(str, INT_MAX, fmt, ap);
}

int vsnprintf(char *str, size_t len, const char *fmt, va_list ap)
{
 30006f4:	a9b653f3 	stp	x19, x20, [sp,#-160]!
				OUTPUT_CHAR(uc);
				break;
			case 's':
				s = va_arg(ap, const char *);
				if(s == 0)
					s = "<null>";
 30006f8:	b0000054 	adrp	x20, 3009000 <el3_vectors>
 30006fc:	91344284 	add	x4, x20, #0xd10
{
	return vsnprintf(str, INT_MAX, fmt, ap);
}

int vsnprintf(char *str, size_t len, const char *fmt, va_list ap)
{
 3000700:	a90263f7 	stp	x23, x24, [sp,#32]
 3000704:	a9036bf9 	stp	x25, x26, [sp,#48]
 3000708:	a90473fb 	stp	x27, x28, [sp,#64]
 300070c:	a9015bf5 	stp	x21, x22, [sp,#16]
 3000710:	f9002bfe 	str	x30, [sp,#80]
 3000714:	aa0003f7 	mov	x23, x0
		/* grab the next format character */
		c = *fmt++;
		if(c == 0)
			break;

		switch(c) {
 3000718:	b000005c 	adrp	x28, 3009000 <el3_vectors>
 300071c:	9128c39c 	add	x28, x28, #0xa30
 3000720:	f9400460 	ldr	x0, [x3,#8]
{
	return vsnprintf(str, INT_MAX, fmt, ap);
}

int vsnprintf(char *str, size_t len, const char *fmt, va_list ap)
{
 3000724:	aa0103f8 	mov	x24, x1
 3000728:	f940007b 	ldr	x27, [x3]
 300072c:	aa0203f9 	mov	x25, x2
 3000730:	b9401874 	ldr	w20, [x3,#24]
	const char *s;
	unsigned long long n;
	void *ptr;
	int flags;
	unsigned int format_num;
	size_t chars_written = 0;
 3000734:	d2800013 	mov	x19, #0x0                   	// #0
				OUTPUT_CHAR(uc);
				break;
			case 's':
				s = va_arg(ap, const char *);
				if(s == 0)
					s = "<null>";
 3000738:	f90037e4 	str	x4, [sp,#104]
 300073c:	910203fa 	add	x26, sp, #0x80
 3000740:	f90033e0 	str	x0, [sp,#96]
#define OUTPUT_CHAR(c) do { (*str++ = c); chars_written++; if (chars_written + 1 == len) goto done; } while(0)
#define OUTPUT_CHAR_NOLENCHECK(c) do { (*str++ = c); chars_written++; } while(0)

	for(;;) {
		/* handle regular chars that aren't format related */
		while((c = *fmt++) != 0) {
 3000744:	39400320 	ldrb	w0, [x25]
 3000748:	35000140 	cbnz	w0, 3000770 <vsnprintf+0x7c>
		continue;
	}

done:
	/* null terminate */
	OUTPUT_CHAR_NOLENCHECK('\0');
 300074c:	390002ff 	strb	wzr, [x23]

#undef OUTPUT_CHAR
#undef OUTPUT_CHAR_NOLENCHECK

	return chars_written;
}
 3000750:	2a1303e0 	mov	w0, w19
 3000754:	a9415bf5 	ldp	x21, x22, [sp,#16]
 3000758:	a94263f7 	ldp	x23, x24, [sp,#32]
 300075c:	a9436bf9 	ldp	x25, x26, [sp,#48]
 3000760:	a94473fb 	ldp	x27, x28, [sp,#64]
 3000764:	f9402bfe 	ldr	x30, [sp,#80]
 3000768:	a8ca53f3 	ldp	x19, x20, [sp],#160
 300076c:	d65f03c0 	ret
#define OUTPUT_CHAR_NOLENCHECK(c) do { (*str++ = c); chars_written++; } while(0)

	for(;;) {
		/* handle regular chars that aren't format related */
		while((c = *fmt++) != 0) {
			if(c == '%')
 3000770:	7100941f 	cmp	w0, #0x25
#define OUTPUT_CHAR(c) do { (*str++ = c); chars_written++; if (chars_written + 1 == len) goto done; } while(0)
#define OUTPUT_CHAR_NOLENCHECK(c) do { (*str++ = c); chars_written++; } while(0)

	for(;;) {
		/* handle regular chars that aren't format related */
		while((c = *fmt++) != 0) {
 3000774:	91000739 	add	x25, x25, #0x1
			if(c == '%')
 3000778:	54000160 	b.eq	30007a4 <vsnprintf+0xb0>
				break; /* we saw a '%', break and start parsing format */
			else if (c == '\n') {
 300077c:	7100281f 	cmp	w0, #0xa
 3000780:	54001820 	b.eq	3000a84 <vsnprintf+0x390>
				OUTPUT_CHAR(0xd);
				OUTPUT_CHAR(0xa);
			}
			else
				OUTPUT_CHAR(c);
 3000784:	390002e0 	strb	w0, [x23]
 3000788:	91000a60 	add	x0, x19, #0x2
 300078c:	eb18001f 	cmp	x0, x24
 3000790:	91000660 	add	x0, x19, #0x1
 3000794:	910006f7 	add	x23, x23, #0x1
 3000798:	aa0003f3 	mov	x19, x0
 300079c:	54fffd41 	b.ne	3000744 <vsnprintf+0x50>
 30007a0:	17ffffeb 	b	300074c <vsnprintf+0x58>
#define OUTPUT_CHAR_NOLENCHECK(c) do { (*str++ = c); chars_written++; } while(0)

	for(;;) {
		/* handle regular chars that aren't format related */
		while((c = *fmt++) != 0) {
			if(c == '%')
 30007a4:	52800015 	mov	w21, #0x0                   	// #0
 30007a8:	52800007 	mov	w7, #0x0                   	// #0

		switch(c) {
			case '0'...'9':
				if (c == '0' && format_num == 0)
					flags |= LEADZEROFLAG;
				format_num *= 10;
 30007ac:	52800142 	mov	w2, #0xa                   	// #10
		flags = 0;
		format_num = 0;

next_format:
		/* grab the next format character */
		c = *fmt++;
 30007b0:	38401720 	ldrb	w0, [x25],#1
		if(c == 0)
 30007b4:	34fffcc0 	cbz	w0, 300074c <vsnprintf+0x58>
			break;

		switch(c) {
 30007b8:	51008c01 	sub	w1, w0, #0x23
 30007bc:	71015c3f 	cmp	w1, #0x57
 30007c0:	540001a9 	b.ls	30007f4 <vsnprintf+0x100>
					*(size_t *)ptr = chars_written;
				else
					*(int *)ptr = chars_written;
				break;
			default:
				OUTPUT_CHAR('%');
 30007c4:	91000a61 	add	x1, x19, #0x2
 30007c8:	528004a2 	mov	w2, #0x25                  	// #37
 30007cc:	eb18003f 	cmp	x1, x24
 30007d0:	390002e2 	strb	w2, [x23]
 30007d4:	54001620 	b.eq	3000a98 <vsnprintf+0x3a4>
				OUTPUT_CHAR(c);
 30007d8:	390006e0 	strb	w0, [x23,#1]
 30007dc:	91000e60 	add	x0, x19, #0x3
 30007e0:	eb18001f 	cmp	x0, x24
 30007e4:	aa0103f3 	mov	x19, x1
 30007e8:	91000af7 	add	x23, x23, #0x2
 30007ec:	54fffac1 	b.ne	3000744 <vsnprintf+0x50>
 30007f0:	17ffffd7 	b	300074c <vsnprintf+0x58>
		/* grab the next format character */
		c = *fmt++;
		if(c == 0)
			break;

		switch(c) {
 30007f4:	78615b81 	ldrh	w1, [x28,w1,uxtw #1]
 30007f8:	10000063 	adr	x3, 3000804 <vsnprintf+0x110>
 30007fc:	8b21a861 	add	x1, x3, w1, sxth #2
 3000800:	d61f0020 	br	x1
				goto _output_string;
			case 'p':
				flags |= LONGFLAG | ALTFLAG;
				goto hex;
			case 'X':
				flags |= CAPSFLAG;
 3000804:	321a00e7 	orr	w7, w7, #0x40
				/* fallthrough */
hex:
			case 'x':
				n = (flags & LONGLONGFLAG) ? va_arg(ap, unsigned long long) :
 3000808:	36080a67 	tbz	w7, #1, 3000954 <vsnprintf+0x260>
 300080c:	37f82094 	tbnz	w20, #31, 3000c1c <vsnprintf+0x528>
 3000810:	91003f61 	add	x1, x27, #0xf
 3000814:	aa1b03e0 	mov	x0, x27
 3000818:	927df03b 	and	x27, x1, #0xfffffffffffffff8
 300081c:	f9400000 	ldr	x0, [x0]
	static const char hextable[] = { '0', '1', '2', '3', '4', '5', '6', '7', '8', '9', 'a', 'b', 'c', 'd', 'e', 'f' };
	static const char hextable_caps[] = { '0', '1', '2', '3', '4', '5', '6', '7', '8', '9', 'A', 'B', 'C', 'D', 'E', 'F' };
	const char *table;

	if((flag & CAPSFLAG))
		table = hextable_caps;
 3000820:	b0000048 	adrp	x8, 3009000 <el3_vectors>
 3000824:	912b8108 	add	x8, x8, #0xae0
	int pos = len;
	static const char hextable[] = { '0', '1', '2', '3', '4', '5', '6', '7', '8', '9', 'a', 'b', 'c', 'd', 'e', 'f' };
	static const char hextable_caps[] = { '0', '1', '2', '3', '4', '5', '6', '7', '8', '9', 'A', 'B', 'C', 'D', 'E', 'F' };
	const char *table;

	if((flag & CAPSFLAG))
 3000828:	121a00e9 	and	w9, w7, #0x40
 300082c:	37300047 	tbnz	w7, #6, 3000834 <vsnprintf+0x140>
		table = hextable_caps;
	else
		table = hextable;
 3000830:	91004108 	add	x8, x8, #0x10

	buf[--pos] = 0;
 3000834:	39027fff 	strb	wzr, [sp,#159]
 3000838:	528003e2 	mov	w2, #0x1f                  	// #31
	do {
		unsigned int digit = u % 16;
 300083c:	12000c01 	and	w1, w0, #0xf
		u /= 16;

		buf[--pos] = table[digit];
 3000840:	51000442 	sub	w2, w2, #0x1
		table = hextable;

	buf[--pos] = 0;
	do {
		unsigned int digit = u % 16;
		u /= 16;
 3000844:	d344fc00 	lsr	x0, x0, #4

		buf[--pos] = table[digit];
 3000848:	2a0103e1 	mov	w1, w1
 300084c:	93407c43 	sxtw	x3, w2
 3000850:	8b030344 	add	x4, x26, x3
 3000854:	38616901 	ldrb	w1, [x8,x1]
 3000858:	38236b41 	strb	w1, [x26,x3]
	} while(u != 0);
 300085c:	b5ffff00 	cbnz	x0, 300083c <vsnprintf+0x148>
					(flags & HALFHALFFLAG) ? (unsigned char)va_arg(ap, unsigned int) :
					(flags & HALFFLAG) ? (unsigned short)va_arg(ap, unsigned int) :
					(flags & SIZETFLAG) ? va_arg(ap, size_t) :
					va_arg(ap, unsigned int);
				s = longlong_to_hexstring(num_buffer, n, sizeof(num_buffer), flags);
				if(flags & ALTFLAG) {
 3000860:	36280207 	tbz	w7, #5, 30008a0 <vsnprintf+0x1ac>
					OUTPUT_CHAR('0');
 3000864:	91000a62 	add	x2, x19, #0x2
 3000868:	52800600 	mov	w0, #0x30                  	// #48
 300086c:	eb18005f 	cmp	x2, x24
 3000870:	390002e0 	strb	w0, [x23]
 3000874:	54001120 	b.eq	3000a98 <vsnprintf+0x3a4>
					OUTPUT_CHAR((flags & CAPSFLAG) ? 'X': 'x');
 3000878:	6b1f013f 	cmp	w9, wzr
 300087c:	91000e60 	add	x0, x19, #0x3
 3000880:	52800b01 	mov	w1, #0x58                  	// #88
 3000884:	52800f03 	mov	w3, #0x78                  	// #120
 3000888:	1a831021 	csel	w1, w1, w3, ne
 300088c:	eb18001f 	cmp	x0, x24
 3000890:	390006e1 	strb	w1, [x23,#1]
 3000894:	aa0203f3 	mov	x19, x2
 3000898:	91000af7 	add	x23, x23, #0x2
 300089c:	54fff580 	b.eq	300074c <vsnprintf+0x58>
 30008a0:	2a1503f6 	mov	w22, w21
		/* move on to the next field */
		continue;

		/* shared output code */
_output_string:
		if (flags & LEFTFORMATFLAG) {
 30008a4:	36480867 	tbz	w7, #9, 30009b0 <vsnprintf+0x2bc>
			/* left justify the text */
			unsigned int count = 0;
			while(*s != 0) {
 30008a8:	39400080 	ldrb	w0, [x4]
 30008ac:	340022a0 	cbz	w0, 3000d00 <vsnprintf+0x60c>
				OUTPUT_CHAR(*s++);
 30008b0:	390002e0 	strb	w0, [x23]
 30008b4:	91000a60 	add	x0, x19, #0x2
 30008b8:	eb18001f 	cmp	x0, x24
 30008bc:	910006e2 	add	x2, x23, #0x1
 30008c0:	91000660 	add	x0, x19, #0x1
 30008c4:	54000da0 	b.eq	3000a78 <vsnprintf+0x384>
 30008c8:	cb130093 	sub	x19, x4, x19
 30008cc:	52800003 	mov	w3, #0x0                   	// #0
 30008d0:	14000006 	b	30008e8 <vsnprintf+0x1f4>
 30008d4:	91000804 	add	x4, x0, #0x2
 30008d8:	38001441 	strb	w1, [x2],#1
 30008dc:	eb18009f 	cmp	x4, x24
 30008e0:	91000400 	add	x0, x0, #0x1
 30008e4:	54000ca0 	b.eq	3000a78 <vsnprintf+0x384>
		/* shared output code */
_output_string:
		if (flags & LEFTFORMATFLAG) {
			/* left justify the text */
			unsigned int count = 0;
			while(*s != 0) {
 30008e8:	38606a61 	ldrb	w1, [x19,x0]
				OUTPUT_CHAR(*s++);
				count++;
 30008ec:	11000463 	add	w3, w3, #0x1
		/* shared output code */
_output_string:
		if (flags & LEFTFORMATFLAG) {
			/* left justify the text */
			unsigned int count = 0;
			while(*s != 0) {
 30008f0:	35ffff21 	cbnz	w1, 30008d4 <vsnprintf+0x1e0>
				OUTPUT_CHAR(*s++);
				count++;
			}

			/* pad to the right (if necessary) */
			for (; format_num > count; format_num--)
 30008f4:	6b15007f 	cmp	w3, w21
 30008f8:	54000d62 	b.cs	3000aa4 <vsnprintf+0x3b0>
				OUTPUT_CHAR(' ');
 30008fc:	91000801 	add	x1, x0, #0x2
 3000900:	52800404 	mov	w4, #0x20                  	// #32
 3000904:	eb18003f 	cmp	x1, x24
 3000908:	39000044 	strb	w4, [x2]
 300090c:	91000400 	add	x0, x0, #0x1
 3000910:	91000441 	add	x1, x2, #0x1
 3000914:	54002760 	b.eq	3000e00 <vsnprintf+0x70c>
 3000918:	510006b7 	sub	w23, w21, #0x1
 300091c:	aa0003f3 	mov	x19, x0
 3000920:	4b0302f7 	sub	w23, w23, w3
 3000924:	910006f7 	add	x23, x23, #0x1
 3000928:	8b170057 	add	x23, x2, x23
 300092c:	cb020002 	sub	x2, x0, x2
				OUTPUT_CHAR(*s++);
				count++;
			}

			/* pad to the right (if necessary) */
			for (; format_num > count; format_num--)
 3000930:	eb17003f 	cmp	x1, x23
 3000934:	54fff080 	b.eq	3000744 <vsnprintf+0x50>
				OUTPUT_CHAR(' ');
 3000938:	38001424 	strb	w4, [x1],#1
 300093c:	91000673 	add	x19, x19, #0x1
 3000940:	8b020020 	add	x0, x1, x2
 3000944:	eb18001f 	cmp	x0, x24
 3000948:	54ffff41 	b.ne	3000930 <vsnprintf+0x23c>
 300094c:	aa0103f7 	mov	x23, x1
 3000950:	17ffff7f 	b	300074c <vsnprintf+0x58>
			case 'X':
				flags |= CAPSFLAG;
				/* fallthrough */
hex:
			case 'x':
				n = (flags & LONGLONGFLAG) ? va_arg(ap, unsigned long long) :
 3000954:	3707f5c7 	tbnz	w7, #0, 300080c <vsnprintf+0x118>
 3000958:	36181807 	tbz	w7, #3, 3000c58 <vsnprintf+0x564>
				    (flags & LONGFLAG) ? va_arg(ap, unsigned long) :
					(flags & HALFHALFFLAG) ? (unsigned char)va_arg(ap, unsigned int) :
 300095c:	37f821d4 	tbnz	w20, #31, 3000d94 <vsnprintf+0x6a0>
 3000960:	aa1b03e0 	mov	x0, x27
 3000964:	91002f61 	add	x1, x27, #0xb
 3000968:	927df03b 	and	x27, x1, #0xfffffffffffffff8
			case 'X':
				flags |= CAPSFLAG;
				/* fallthrough */
hex:
			case 'x':
				n = (flags & LONGLONGFLAG) ? va_arg(ap, unsigned long long) :
 300096c:	39400000 	ldrb	w0, [x0]
 3000970:	17ffffac 	b	3000820 <vsnprintf+0x12c>
					va_arg(ap, int);
				flags |= SIGNEDFLAG;
				s = longlong_to_string(num_buffer, n, sizeof(num_buffer), flags);
				goto _output_string;
			case 'U':
				flags |= LONGFLAG;
 3000974:	320000e7 	orr	w7, w7, #0x1
				/* fallthrough */
			case 'u':
				n = (flags & LONGLONGFLAG) ? va_arg(ap, unsigned long long) :
 3000978:	36080b07 	tbz	w7, #1, 3000ad8 <vsnprintf+0x3e4>
 300097c:	37f81654 	tbnz	w20, #31, 3000c44 <vsnprintf+0x550>
 3000980:	91003f61 	add	x1, x27, #0xf
 3000984:	aa1b03e0 	mov	x0, x27
 3000988:	927df03b 	and	x27, x1, #0xfffffffffffffff8
 300098c:	f9400001 	ldr	x1, [x0]
					(flags & LONGFLAG) ? va_arg(ap, unsigned long) :
					(flags & HALFHALFFLAG) ? (unsigned char)va_arg(ap, unsigned int) :
					(flags & HALFFLAG) ? (unsigned short)va_arg(ap, unsigned int) :
					(flags & SIZETFLAG) ? va_arg(ap, size_t) :
					va_arg(ap, unsigned int);
				s = longlong_to_string(num_buffer, n, sizeof(num_buffer), flags);
 3000990:	2a0703e2 	mov	w2, w7
 3000994:	aa1a03e0 	mov	x0, x26
 3000998:	b90073e7 	str	w7, [sp,#112]
				goto _output_string;
 300099c:	2a1503f6 	mov	w22, w21
					(flags & LONGFLAG) ? va_arg(ap, unsigned long) :
					(flags & HALFHALFFLAG) ? (unsigned char)va_arg(ap, unsigned int) :
					(flags & HALFFLAG) ? (unsigned short)va_arg(ap, unsigned int) :
					(flags & SIZETFLAG) ? va_arg(ap, size_t) :
					va_arg(ap, unsigned int);
				s = longlong_to_string(num_buffer, n, sizeof(num_buffer), flags);
 30009a0:	97fffefe 	bl	3000598 <longlong_to_string.constprop.0>
 30009a4:	aa0003e4 	mov	x4, x0
				goto _output_string;
 30009a8:	b94073e7 	ldr	w7, [sp,#112]
		/* move on to the next field */
		continue;

		/* shared output code */
_output_string:
		if (flags & LEFTFORMATFLAG) {
 30009ac:	374ff7e7 	tbnz	w7, #9, 30008a8 <vsnprintf+0x1b4>
			/* pad to the right (if necessary) */
			for (; format_num > count; format_num--)
				OUTPUT_CHAR(' ');
		} else {
			/* right justify the text (digits) */
			size_t str_len = string_len(s);
 30009b0:	aa0403e0 	mov	x0, x4
 30009b4:	b9007fe7 	str	w7, [sp,#124]
 30009b8:	f9003be4 	str	x4, [sp,#112]
 30009bc:	94001c60 	bl	3007b3c <string_len>
 30009c0:	93407c03 	sxtw	x3, w0
			char outchar = (flags & LEADZEROFLAG) ? '0' : ' ';
 30009c4:	b9407fe7 	ldr	w7, [sp,#124]
 30009c8:	52800402 	mov	w2, #0x20                  	// #32
			for (; format_num > str_len; format_num--)
 30009cc:	f9403be4 	ldr	x4, [sp,#112]
			for (; format_num > count; format_num--)
				OUTPUT_CHAR(' ');
		} else {
			/* right justify the text (digits) */
			size_t str_len = string_len(s);
			char outchar = (flags & LEADZEROFLAG) ? '0' : ' ';
 30009d0:	121600e1 	and	w1, w7, #0x400
 30009d4:	6b1f003f 	cmp	w1, wzr
 30009d8:	52800601 	mov	w1, #0x30                  	// #48
 30009dc:	1a821022 	csel	w2, w1, w2, ne
			for (; format_num > str_len; format_num--)
 30009e0:	eb35407f 	cmp	x3, w21, uxtw
 30009e4:	54001d42 	b.cs	3000d8c <vsnprintf+0x698>
				OUTPUT_CHAR(outchar);
 30009e8:	91000a60 	add	x0, x19, #0x2
 30009ec:	390002e2 	strb	w2, [x23]
 30009f0:	eb18001f 	cmp	x0, x24
 30009f4:	910006f7 	add	x23, x23, #0x1
 30009f8:	91000660 	add	x0, x19, #0x1
 30009fc:	54000101 	b.ne	3000a1c <vsnprintf+0x328>
 3000a00:	14000083 	b	3000c0c <vsnprintf+0x518>
 3000a04:	91000801 	add	x1, x0, #0x2
 3000a08:	380016e2 	strb	w2, [x23],#1
 3000a0c:	eb18003f 	cmp	x1, x24
 3000a10:	91000413 	add	x19, x0, #0x1
 3000a14:	54ffe9c0 	b.eq	300074c <vsnprintf+0x58>
 3000a18:	aa1303e0 	mov	x0, x19
				OUTPUT_CHAR(' ');
		} else {
			/* right justify the text (digits) */
			size_t str_len = string_len(s);
			char outchar = (flags & LEADZEROFLAG) ? '0' : ' ';
			for (; format_num > str_len; format_num--)
 3000a1c:	510006d6 	sub	w22, w22, #0x1
 3000a20:	eb36407f 	cmp	x3, w22, uxtw
 3000a24:	54ffff03 	b.cc	3000a04 <vsnprintf+0x310>
 3000a28:	aa0003f3 	mov	x19, x0
 3000a2c:	cb000084 	sub	x4, x4, x0
				OUTPUT_CHAR(outchar);

			/* output the string */
			while(*s != 0)
 3000a30:	38736880 	ldrb	w0, [x4,x19]
 3000a34:	34ffe880 	cbz	w0, 3000744 <vsnprintf+0x50>
				OUTPUT_CHAR(*s++);
 3000a38:	380016e0 	strb	w0, [x23],#1
 3000a3c:	91000a60 	add	x0, x19, #0x2
 3000a40:	eb18001f 	cmp	x0, x24
 3000a44:	91000660 	add	x0, x19, #0x1
 3000a48:	aa0003f3 	mov	x19, x0
 3000a4c:	54ffff21 	b.ne	3000a30 <vsnprintf+0x33c>
 3000a50:	17ffff3f 	b	300074c <vsnprintf+0x58>
				goto next_format;
			case 'z':
				flags |= SIZETFLAG;
				goto next_format;
			case 'D':
				flags |= LONGFLAG;
 3000a54:	320000e7 	orr	w7, w7, #0x1
				/* fallthrough */
			case 'i':
			case 'd':
				n = (flags & LONGLONGFLAG) ? va_arg(ap, long long) :
 3000a58:	360802c7 	tbz	w7, #1, 3000ab0 <vsnprintf+0x3bc>
					(flags & LONGFLAG) ? va_arg(ap, long) :
					(flags & HALFHALFFLAG) ? (signed char)va_arg(ap, int) :
					(flags & HALFFLAG) ? (short)va_arg(ap, int) :
					(flags & SIZETFLAG) ? va_arg(ap, ssize_t) :
 3000a5c:	37f80eb4 	tbnz	w20, #31, 3000c30 <vsnprintf+0x53c>
 3000a60:	aa1b03e0 	mov	x0, x27
 3000a64:	91003f61 	add	x1, x27, #0xf
 3000a68:	927df03b 	and	x27, x1, #0xfffffffffffffff8
			case 'D':
				flags |= LONGFLAG;
				/* fallthrough */
			case 'i':
			case 'd':
				n = (flags & LONGLONGFLAG) ? va_arg(ap, long long) :
 3000a6c:	f9400001 	ldr	x1, [x0]
					(flags & LONGFLAG) ? va_arg(ap, long) :
					(flags & HALFHALFFLAG) ? (signed char)va_arg(ap, int) :
					(flags & HALFFLAG) ? (short)va_arg(ap, int) :
					(flags & SIZETFLAG) ? va_arg(ap, ssize_t) :
					va_arg(ap, int);
				flags |= SIGNEDFLAG;
 3000a70:	321800e7 	orr	w7, w7, #0x100
 3000a74:	17ffffc7 	b	3000990 <vsnprintf+0x29c>
_output_string:
		if (flags & LEFTFORMATFLAG) {
			/* left justify the text */
			unsigned int count = 0;
			while(*s != 0) {
				OUTPUT_CHAR(*s++);
 3000a78:	aa0003f3 	mov	x19, x0
 3000a7c:	aa0203f7 	mov	x23, x2
 3000a80:	17ffff33 	b	300074c <vsnprintf+0x58>
		/* handle regular chars that aren't format related */
		while((c = *fmt++) != 0) {
			if(c == '%')
				break; /* we saw a '%', break and start parsing format */
			else if (c == '\n') {
				OUTPUT_CHAR(0xd);
 3000a84:	91000a61 	add	x1, x19, #0x2
 3000a88:	528001a2 	mov	w2, #0xd                   	// #13
 3000a8c:	eb18003f 	cmp	x1, x24
 3000a90:	390002e2 	strb	w2, [x23]
 3000a94:	54ffea21 	b.ne	30007d8 <vsnprintf+0xe4>
 3000a98:	910006f7 	add	x23, x23, #0x1
 3000a9c:	91000673 	add	x19, x19, #0x1
 3000aa0:	17ffff2b 	b	300074c <vsnprintf+0x58>
				OUTPUT_CHAR(*s++);
				count++;
			}

			/* pad to the right (if necessary) */
			for (; format_num > count; format_num--)
 3000aa4:	aa0003f3 	mov	x19, x0
 3000aa8:	aa0203f7 	mov	x23, x2
 3000aac:	17ffff26 	b	3000744 <vsnprintf+0x50>
			case 'D':
				flags |= LONGFLAG;
				/* fallthrough */
			case 'i':
			case 'd':
				n = (flags & LONGLONGFLAG) ? va_arg(ap, long long) :
 3000ab0:	3707fd67 	tbnz	w7, #0, 3000a5c <vsnprintf+0x368>
 3000ab4:	37180ee7 	tbnz	w7, #3, 3000c90 <vsnprintf+0x59c>
 3000ab8:	36101347 	tbz	w7, #2, 3000d20 <vsnprintf+0x62c>
					(flags & LONGFLAG) ? va_arg(ap, long) :
					(flags & HALFHALFFLAG) ? (signed char)va_arg(ap, int) :
					(flags & HALFFLAG) ? (short)va_arg(ap, int) :
 3000abc:	37f81c34 	tbnz	w20, #31, 3000e40 <vsnprintf+0x74c>
 3000ac0:	aa1b03e0 	mov	x0, x27
 3000ac4:	91002f61 	add	x1, x27, #0xb
 3000ac8:	927df03b 	and	x27, x1, #0xfffffffffffffff8
			case 'D':
				flags |= LONGFLAG;
				/* fallthrough */
			case 'i':
			case 'd':
				n = (flags & LONGLONGFLAG) ? va_arg(ap, long long) :
 3000acc:	79800001 	ldrsh	x1, [x0]
					(flags & LONGFLAG) ? va_arg(ap, long) :
					(flags & HALFHALFFLAG) ? (signed char)va_arg(ap, int) :
					(flags & HALFFLAG) ? (short)va_arg(ap, int) :
					(flags & SIZETFLAG) ? va_arg(ap, ssize_t) :
					va_arg(ap, int);
				flags |= SIGNEDFLAG;
 3000ad0:	321800e7 	orr	w7, w7, #0x100
 3000ad4:	17ffffaf 	b	3000990 <vsnprintf+0x29c>
				goto _output_string;
			case 'U':
				flags |= LONGFLAG;
				/* fallthrough */
			case 'u':
				n = (flags & LONGLONGFLAG) ? va_arg(ap, unsigned long long) :
 3000ad8:	3707f527 	tbnz	w7, #0, 300097c <vsnprintf+0x288>
 3000adc:	37180ce7 	tbnz	w7, #3, 3000c78 <vsnprintf+0x584>
 3000ae0:	36101367 	tbz	w7, #2, 3000d4c <vsnprintf+0x658>
					(flags & LONGFLAG) ? va_arg(ap, unsigned long) :
					(flags & HALFHALFFLAG) ? (unsigned char)va_arg(ap, unsigned int) :
					(flags & HALFFLAG) ? (unsigned short)va_arg(ap, unsigned int) :
 3000ae4:	37f81a54 	tbnz	w20, #31, 3000e2c <vsnprintf+0x738>
 3000ae8:	aa1b03e0 	mov	x0, x27
 3000aec:	91002f61 	add	x1, x27, #0xb
 3000af0:	927df03b 	and	x27, x1, #0xfffffffffffffff8
				goto _output_string;
			case 'U':
				flags |= LONGFLAG;
				/* fallthrough */
			case 'u':
				n = (flags & LONGLONGFLAG) ? va_arg(ap, unsigned long long) :
 3000af4:	79400001 	ldrh	w1, [x0]
 3000af8:	17ffffa6 	b	3000990 <vsnprintf+0x29c>
				if(flags & HALFFLAG)
					flags |= HALFHALFFLAG;
				flags |= HALFFLAG;
				goto next_format;
			case 'z':
				flags |= SIZETFLAG;
 3000afc:	321c00e7 	orr	w7, w7, #0x10
				goto next_format;
 3000b00:	17ffff2c 	b	30007b0 <vsnprintf+0xbc>
					(flags & SIZETFLAG) ? va_arg(ap, size_t) :
					va_arg(ap, unsigned int);
				s = longlong_to_string(num_buffer, n, sizeof(num_buffer), flags);
				goto _output_string;
			case 'p':
				flags |= LONGFLAG | ALTFLAG;
 3000b04:	52800420 	mov	w0, #0x21                  	// #33
 3000b08:	2a0000e7 	orr	w7, w7, w0
			case 'X':
				flags |= CAPSFLAG;
				/* fallthrough */
hex:
			case 'x':
				n = (flags & LONGLONGFLAG) ? va_arg(ap, unsigned long long) :
 3000b0c:	370fe807 	tbnz	w7, #1, 300080c <vsnprintf+0x118>
 3000b10:	17ffff91 	b	3000954 <vsnprintf+0x260>
				goto next_format;
			case '%':
				OUTPUT_CHAR('%');
				break;
			case 'c':
				uc = va_arg(ap, unsigned int);
 3000b14:	37f80ed4 	tbnz	w20, #31, 3000cec <vsnprintf+0x5f8>
 3000b18:	91002f61 	add	x1, x27, #0xb
 3000b1c:	aa1b03e0 	mov	x0, x27
 3000b20:	927df03b 	and	x27, x1, #0xfffffffffffffff8
 3000b24:	b9400000 	ldr	w0, [x0]
				OUTPUT_CHAR(uc);
 3000b28:	910006f7 	add	x23, x23, #0x1
				goto next_format;
			case '%':
				OUTPUT_CHAR('%');
				break;
			case 'c':
				uc = va_arg(ap, unsigned int);
 3000b2c:	381ff2e0 	sturb	w0, [x23,#-1]
				OUTPUT_CHAR(uc);
 3000b30:	91000a60 	add	x0, x19, #0x2
 3000b34:	eb18001f 	cmp	x0, x24
 3000b38:	91000660 	add	x0, x19, #0x1
 3000b3c:	54000680 	b.eq	3000c0c <vsnprintf+0x518>
 3000b40:	aa0003f3 	mov	x19, x0
 3000b44:	17ffff00 	b	3000744 <vsnprintf+0x50>
				goto next_format;
			case '#':
				flags |= ALTFLAG;
				goto next_format;
			case 'l':
				if(flags & LONGFLAG)
 3000b48:	120000e0 	and	w0, w7, #0x1
					flags |= LONGLONGFLAG;
 3000b4c:	2a0004e7 	orr	w7, w7, w0, lsl #1
				flags |= LONGFLAG;
 3000b50:	320000e7 	orr	w7, w7, #0x1
				goto next_format;
 3000b54:	17ffff17 	b	30007b0 <vsnprintf+0xbc>
					OUTPUT_CHAR('0');
					OUTPUT_CHAR((flags & CAPSFLAG) ? 'X': 'x');
				}
				goto _output_string;
			case 'n':
				ptr = va_arg(ap, void *);
 3000b58:	37f80c14 	tbnz	w20, #31, 3000cd8 <vsnprintf+0x5e4>
 3000b5c:	91003f61 	add	x1, x27, #0xf
 3000b60:	aa1b03e0 	mov	x0, x27
 3000b64:	927df03b 	and	x27, x1, #0xfffffffffffffff8
 3000b68:	f9400000 	ldr	x0, [x0]
				if(flags & LONGLONGFLAG)
 3000b6c:	37080547 	tbnz	w7, #1, 3000c14 <vsnprintf+0x520>
					*(long long *)ptr = chars_written;
				else if(flags & LONGFLAG)
 3000b70:	37000527 	tbnz	w7, #0, 3000c14 <vsnprintf+0x520>
					*(long *)ptr = chars_written;
				else if(flags & HALFHALFFLAG)
 3000b74:	36180e67 	tbz	w7, #3, 3000d40 <vsnprintf+0x64c>
					*(signed char *)ptr = chars_written;
 3000b78:	39000013 	strb	w19, [x0]
 3000b7c:	17fffef2 	b	3000744 <vsnprintf+0x50>
				if(flags & LONGFLAG)
					flags |= LONGLONGFLAG;
				flags |= LONGFLAG;
				goto next_format;
			case 'h':
				if(flags & HALFFLAG)
 3000b80:	121e00e0 	and	w0, w7, #0x4
					flags |= HALFHALFFLAG;
 3000b84:	6b1f001f 	cmp	w0, wzr
 3000b88:	321d00e0 	orr	w0, w7, #0x8
 3000b8c:	1a871007 	csel	w7, w0, w7, ne
				flags |= HALFFLAG;
 3000b90:	321e00e7 	orr	w7, w7, #0x4
				goto next_format;
 3000b94:	17ffff07 	b	30007b0 <vsnprintf+0xbc>
				goto next_format;
			case '+':
				flags |= SHOWSIGNFLAG;
				goto next_format;
			case '#':
				flags |= ALTFLAG;
 3000b98:	321b00e7 	orr	w7, w7, #0x20
				goto next_format;
 3000b9c:	17ffff05 	b	30007b0 <vsnprintf+0xbc>
				goto _output_string;
			case '-':
				flags |= LEFTFORMATFLAG;
				goto next_format;
			case '+':
				flags |= SHOWSIGNFLAG;
 3000ba0:	321900e7 	orr	w7, w7, #0x80
				goto next_format;
 3000ba4:	17ffff03 	b	30007b0 <vsnprintf+0xbc>
				s = va_arg(ap, const char *);
				if(s == 0)
					s = "<null>";
				goto _output_string;
			case '-':
				flags |= LEFTFORMATFLAG;
 3000ba8:	321700e7 	orr	w7, w7, #0x200
				goto next_format;
 3000bac:	17ffff01 	b	30007b0 <vsnprintf+0xbc>
		if(c == 0)
			break;

		switch(c) {
			case '0'...'9':
				if (c == '0' && format_num == 0)
 3000bb0:	35000095 	cbnz	w21, 3000bc0 <vsnprintf+0x4cc>
					flags |= LEADZEROFLAG;
 3000bb4:	7100c01f 	cmp	w0, #0x30
 3000bb8:	321600e1 	orr	w1, w7, #0x400
 3000bbc:	1a870027 	csel	w7, w1, w7, eq
 3000bc0:	5100c000 	sub	w0, w0, #0x30
				format_num *= 10;
				format_num += c - '0';
 3000bc4:	1b0202b5 	madd	w21, w21, w2, w0
				goto next_format;
 3000bc8:	17fffefa 	b	30007b0 <vsnprintf+0xbc>
			case 'c':
				uc = va_arg(ap, unsigned int);
				OUTPUT_CHAR(uc);
				break;
			case 's':
				s = va_arg(ap, const char *);
 3000bcc:	37f807d4 	tbnz	w20, #31, 3000cc4 <vsnprintf+0x5d0>
 3000bd0:	91003f61 	add	x1, x27, #0xf
 3000bd4:	aa1b03e0 	mov	x0, x27
 3000bd8:	927df03b 	and	x27, x1, #0xfffffffffffffff8
 3000bdc:	f9400004 	ldr	x4, [x0]
 3000be0:	2a1503f6 	mov	w22, w21
				if(s == 0)
 3000be4:	b5ffe604 	cbnz	x4, 30008a4 <vsnprintf+0x1b0>
					s = "<null>";
 3000be8:	f94037e4 	ldr	x4, [sp,#104]
 3000bec:	17ffff2e 	b	30008a4 <vsnprintf+0x1b0>
				goto next_format;
			case '.':
				/* XXX for now eat numeric formatting */
				goto next_format;
			case '%':
				OUTPUT_CHAR('%');
 3000bf0:	91000a60 	add	x0, x19, #0x2
 3000bf4:	528004a1 	mov	w1, #0x25                  	// #37
 3000bf8:	eb18001f 	cmp	x0, x24
 3000bfc:	390002e1 	strb	w1, [x23]
 3000c00:	91000660 	add	x0, x19, #0x1
 3000c04:	910006f7 	add	x23, x23, #0x1
 3000c08:	54fff9c1 	b.ne	3000b40 <vsnprintf+0x44c>
		} else {
			/* right justify the text (digits) */
			size_t str_len = string_len(s);
			char outchar = (flags & LEADZEROFLAG) ? '0' : ' ';
			for (; format_num > str_len; format_num--)
				OUTPUT_CHAR(outchar);
 3000c0c:	aa0003f3 	mov	x19, x0
 3000c10:	17fffecf 	b	300074c <vsnprintf+0x58>
				else if(flags & HALFHALFFLAG)
					*(signed char *)ptr = chars_written;
				else if(flags & HALFFLAG)
					*(short *)ptr = chars_written;
				else if(flags & SIZETFLAG)
					*(size_t *)ptr = chars_written;
 3000c14:	f9000013 	str	x19, [x0]
 3000c18:	17fffecb 	b	3000744 <vsnprintf+0x50>
			case 'X':
				flags |= CAPSFLAG;
				/* fallthrough */
hex:
			case 'x':
				n = (flags & LONGLONGFLAG) ? va_arg(ap, unsigned long long) :
 3000c1c:	11002281 	add	w1, w20, #0x8
 3000c20:	6b1f003f 	cmp	w1, wzr
 3000c24:	5400076d 	b.le	3000d10 <vsnprintf+0x61c>
 3000c28:	2a0103f4 	mov	w20, w1
 3000c2c:	17fffef9 	b	3000810 <vsnprintf+0x11c>
			case 'd':
				n = (flags & LONGLONGFLAG) ? va_arg(ap, long long) :
					(flags & LONGFLAG) ? va_arg(ap, long) :
					(flags & HALFHALFFLAG) ? (signed char)va_arg(ap, int) :
					(flags & HALFFLAG) ? (short)va_arg(ap, int) :
					(flags & SIZETFLAG) ? va_arg(ap, ssize_t) :
 3000c30:	11002281 	add	w1, w20, #0x8
 3000c34:	6b1f003f 	cmp	w1, wzr
 3000c38:	5400098d 	b.le	3000d68 <vsnprintf+0x674>
 3000c3c:	2a0103f4 	mov	w20, w1
 3000c40:	17ffff88 	b	3000a60 <vsnprintf+0x36c>
				goto _output_string;
			case 'U':
				flags |= LONGFLAG;
				/* fallthrough */
			case 'u':
				n = (flags & LONGLONGFLAG) ? va_arg(ap, unsigned long long) :
 3000c44:	11002281 	add	w1, w20, #0x8
 3000c48:	6b1f003f 	cmp	w1, wzr
 3000c4c:	5400098d 	b.le	3000d7c <vsnprintf+0x688>
 3000c50:	2a0103f4 	mov	w20, w1
 3000c54:	17ffff4b 	b	3000980 <vsnprintf+0x28c>
			case 'X':
				flags |= CAPSFLAG;
				/* fallthrough */
hex:
			case 'x':
				n = (flags & LONGLONGFLAG) ? va_arg(ap, unsigned long long) :
 3000c58:	371002a7 	tbnz	w7, #2, 3000cac <vsnprintf+0x5b8>
 3000c5c:	3727dd87 	tbnz	w7, #4, 300080c <vsnprintf+0x118>
				    (flags & LONGFLAG) ? va_arg(ap, unsigned long) :
					(flags & HALFHALFFLAG) ? (unsigned char)va_arg(ap, unsigned int) :
					(flags & HALFFLAG) ? (unsigned short)va_arg(ap, unsigned int) :
					(flags & SIZETFLAG) ? va_arg(ap, size_t) :
					va_arg(ap, unsigned int);
 3000c60:	37f81054 	tbnz	w20, #31, 3000e68 <vsnprintf+0x774>
 3000c64:	aa1b03e0 	mov	x0, x27
 3000c68:	91002f61 	add	x1, x27, #0xb
 3000c6c:	927df03b 	and	x27, x1, #0xfffffffffffffff8
			case 'X':
				flags |= CAPSFLAG;
				/* fallthrough */
hex:
			case 'x':
				n = (flags & LONGLONGFLAG) ? va_arg(ap, unsigned long long) :
 3000c70:	b9400000 	ldr	w0, [x0]
 3000c74:	17fffeeb 	b	3000820 <vsnprintf+0x12c>
				flags |= LONGFLAG;
				/* fallthrough */
			case 'u':
				n = (flags & LONGLONGFLAG) ? va_arg(ap, unsigned long long) :
					(flags & LONGFLAG) ? va_arg(ap, unsigned long) :
					(flags & HALFHALFFLAG) ? (unsigned char)va_arg(ap, unsigned int) :
 3000c78:	37f80ab4 	tbnz	w20, #31, 3000dcc <vsnprintf+0x6d8>
 3000c7c:	aa1b03e0 	mov	x0, x27
 3000c80:	91002f61 	add	x1, x27, #0xb
 3000c84:	927df03b 	and	x27, x1, #0xfffffffffffffff8
				goto _output_string;
			case 'U':
				flags |= LONGFLAG;
				/* fallthrough */
			case 'u':
				n = (flags & LONGLONGFLAG) ? va_arg(ap, unsigned long long) :
 3000c88:	39400001 	ldrb	w1, [x0]
 3000c8c:	17ffff41 	b	3000990 <vsnprintf+0x29c>
				/* fallthrough */
			case 'i':
			case 'd':
				n = (flags & LONGLONGFLAG) ? va_arg(ap, long long) :
					(flags & LONGFLAG) ? va_arg(ap, long) :
					(flags & HALFHALFFLAG) ? (signed char)va_arg(ap, int) :
 3000c90:	37f80954 	tbnz	w20, #31, 3000db8 <vsnprintf+0x6c4>
 3000c94:	aa1b03e0 	mov	x0, x27
 3000c98:	91002f61 	add	x1, x27, #0xb
 3000c9c:	927df03b 	and	x27, x1, #0xfffffffffffffff8
			case 'D':
				flags |= LONGFLAG;
				/* fallthrough */
			case 'i':
			case 'd':
				n = (flags & LONGLONGFLAG) ? va_arg(ap, long long) :
 3000ca0:	39800001 	ldrsb	x1, [x0]
					(flags & LONGFLAG) ? va_arg(ap, long) :
					(flags & HALFHALFFLAG) ? (signed char)va_arg(ap, int) :
					(flags & HALFFLAG) ? (short)va_arg(ap, int) :
					(flags & SIZETFLAG) ? va_arg(ap, ssize_t) :
					va_arg(ap, int);
				flags |= SIGNEDFLAG;
 3000ca4:	321800e7 	orr	w7, w7, #0x100
 3000ca8:	17ffff3a 	b	3000990 <vsnprintf+0x29c>
hex:
			case 'x':
				n = (flags & LONGLONGFLAG) ? va_arg(ap, unsigned long long) :
				    (flags & LONGFLAG) ? va_arg(ap, unsigned long) :
					(flags & HALFHALFFLAG) ? (unsigned char)va_arg(ap, unsigned int) :
					(flags & HALFFLAG) ? (unsigned short)va_arg(ap, unsigned int) :
 3000cac:	37f80b74 	tbnz	w20, #31, 3000e18 <vsnprintf+0x724>
 3000cb0:	aa1b03e0 	mov	x0, x27
 3000cb4:	91002f61 	add	x1, x27, #0xb
 3000cb8:	927df03b 	and	x27, x1, #0xfffffffffffffff8
			case 'X':
				flags |= CAPSFLAG;
				/* fallthrough */
hex:
			case 'x':
				n = (flags & LONGLONGFLAG) ? va_arg(ap, unsigned long long) :
 3000cbc:	79400000 	ldrh	w0, [x0]
 3000cc0:	17fffed8 	b	3000820 <vsnprintf+0x12c>
			case 'c':
				uc = va_arg(ap, unsigned int);
				OUTPUT_CHAR(uc);
				break;
			case 's':
				s = va_arg(ap, const char *);
 3000cc4:	11002281 	add	w1, w20, #0x8
 3000cc8:	6b1f003f 	cmp	w1, wzr
 3000ccc:	5400092d 	b.le	3000df0 <vsnprintf+0x6fc>
 3000cd0:	2a0103f4 	mov	w20, w1
 3000cd4:	17ffffbf 	b	3000bd0 <vsnprintf+0x4dc>
					OUTPUT_CHAR('0');
					OUTPUT_CHAR((flags & CAPSFLAG) ? 'X': 'x');
				}
				goto _output_string;
			case 'n':
				ptr = va_arg(ap, void *);
 3000cd8:	11002281 	add	w1, w20, #0x8
 3000cdc:	6b1f003f 	cmp	w1, wzr
 3000ce0:	5400064d 	b.le	3000da8 <vsnprintf+0x6b4>
 3000ce4:	2a0103f4 	mov	w20, w1
 3000ce8:	17ffff9d 	b	3000b5c <vsnprintf+0x468>
				goto next_format;
			case '%':
				OUTPUT_CHAR('%');
				break;
			case 'c':
				uc = va_arg(ap, unsigned int);
 3000cec:	11002281 	add	w1, w20, #0x8
 3000cf0:	6b1f003f 	cmp	w1, wzr
 3000cf4:	5400076d 	b.le	3000de0 <vsnprintf+0x6ec>
 3000cf8:	2a0103f4 	mov	w20, w1
 3000cfc:	17ffff87 	b	3000b18 <vsnprintf+0x424>
		/* shared output code */
_output_string:
		if (flags & LEFTFORMATFLAG) {
			/* left justify the text */
			unsigned int count = 0;
			while(*s != 0) {
 3000d00:	aa1303e0 	mov	x0, x19
 3000d04:	aa1703e2 	mov	x2, x23
 3000d08:	52800003 	mov	w3, #0x0                   	// #0
 3000d0c:	17fffefa 	b	30008f4 <vsnprintf+0x200>
			case 'X':
				flags |= CAPSFLAG;
				/* fallthrough */
hex:
			case 'x':
				n = (flags & LONGLONGFLAG) ? va_arg(ap, unsigned long long) :
 3000d10:	f94033e0 	ldr	x0, [sp,#96]
 3000d14:	8b34c000 	add	x0, x0, w20, sxtw
 3000d18:	2a0103f4 	mov	w20, w1
 3000d1c:	17fffec0 	b	300081c <vsnprintf+0x128>
			case 'D':
				flags |= LONGFLAG;
				/* fallthrough */
			case 'i':
			case 'd':
				n = (flags & LONGLONGFLAG) ? va_arg(ap, long long) :
 3000d20:	3727e9e7 	tbnz	w7, #4, 3000a5c <vsnprintf+0x368>
					(flags & LONGFLAG) ? va_arg(ap, long) :
					(flags & HALFHALFFLAG) ? (signed char)va_arg(ap, int) :
					(flags & HALFFLAG) ? (short)va_arg(ap, int) :
					(flags & SIZETFLAG) ? va_arg(ap, ssize_t) :
					va_arg(ap, int);
 3000d24:	37f80b74 	tbnz	w20, #31, 3000e90 <vsnprintf+0x79c>
 3000d28:	aa1b03e0 	mov	x0, x27
 3000d2c:	91002f61 	add	x1, x27, #0xb
 3000d30:	927df03b 	and	x27, x1, #0xfffffffffffffff8
			case 'D':
				flags |= LONGFLAG;
				/* fallthrough */
			case 'i':
			case 'd':
				n = (flags & LONGLONGFLAG) ? va_arg(ap, long long) :
 3000d34:	b9800001 	ldrsw	x1, [x0]
					(flags & LONGFLAG) ? va_arg(ap, long) :
					(flags & HALFHALFFLAG) ? (signed char)va_arg(ap, int) :
					(flags & HALFFLAG) ? (short)va_arg(ap, int) :
					(flags & SIZETFLAG) ? va_arg(ap, ssize_t) :
					va_arg(ap, int);
				flags |= SIGNEDFLAG;
 3000d38:	321800e7 	orr	w7, w7, #0x100
 3000d3c:	17ffff15 	b	3000990 <vsnprintf+0x29c>
					*(long long *)ptr = chars_written;
				else if(flags & LONGFLAG)
					*(long *)ptr = chars_written;
				else if(flags & HALFHALFFLAG)
					*(signed char *)ptr = chars_written;
				else if(flags & HALFFLAG)
 3000d40:	36100667 	tbz	w7, #2, 3000e0c <vsnprintf+0x718>
					*(short *)ptr = chars_written;
 3000d44:	79000013 	strh	w19, [x0]
 3000d48:	17fffe7f 	b	3000744 <vsnprintf+0x50>
				goto _output_string;
			case 'U':
				flags |= LONGFLAG;
				/* fallthrough */
			case 'u':
				n = (flags & LONGLONGFLAG) ? va_arg(ap, unsigned long long) :
 3000d4c:	3727e187 	tbnz	w7, #4, 300097c <vsnprintf+0x288>
					(flags & LONGFLAG) ? va_arg(ap, unsigned long) :
					(flags & HALFHALFFLAG) ? (unsigned char)va_arg(ap, unsigned int) :
					(flags & HALFFLAG) ? (unsigned short)va_arg(ap, unsigned int) :
					(flags & SIZETFLAG) ? va_arg(ap, size_t) :
					va_arg(ap, unsigned int);
 3000d50:	37f80974 	tbnz	w20, #31, 3000e7c <vsnprintf+0x788>
 3000d54:	aa1b03e0 	mov	x0, x27
 3000d58:	91002f61 	add	x1, x27, #0xb
 3000d5c:	927df03b 	and	x27, x1, #0xfffffffffffffff8
				goto _output_string;
			case 'U':
				flags |= LONGFLAG;
				/* fallthrough */
			case 'u':
				n = (flags & LONGLONGFLAG) ? va_arg(ap, unsigned long long) :
 3000d60:	b9400001 	ldr	w1, [x0]
 3000d64:	17ffff0b 	b	3000990 <vsnprintf+0x29c>
			case 'd':
				n = (flags & LONGLONGFLAG) ? va_arg(ap, long long) :
					(flags & LONGFLAG) ? va_arg(ap, long) :
					(flags & HALFHALFFLAG) ? (signed char)va_arg(ap, int) :
					(flags & HALFFLAG) ? (short)va_arg(ap, int) :
					(flags & SIZETFLAG) ? va_arg(ap, ssize_t) :
 3000d68:	f94033e0 	ldr	x0, [sp,#96]
 3000d6c:	8b34c000 	add	x0, x0, w20, sxtw
 3000d70:	2a0103f4 	mov	w20, w1
			case 'D':
				flags |= LONGFLAG;
				/* fallthrough */
			case 'i':
			case 'd':
				n = (flags & LONGLONGFLAG) ? va_arg(ap, long long) :
 3000d74:	f9400001 	ldr	x1, [x0]
 3000d78:	17ffff3e 	b	3000a70 <vsnprintf+0x37c>
				goto _output_string;
			case 'U':
				flags |= LONGFLAG;
				/* fallthrough */
			case 'u':
				n = (flags & LONGLONGFLAG) ? va_arg(ap, unsigned long long) :
 3000d7c:	f94033e0 	ldr	x0, [sp,#96]
 3000d80:	8b34c000 	add	x0, x0, w20, sxtw
 3000d84:	2a0103f4 	mov	w20, w1
 3000d88:	17ffff01 	b	300098c <vsnprintf+0x298>
				OUTPUT_CHAR(' ');
		} else {
			/* right justify the text (digits) */
			size_t str_len = string_len(s);
			char outchar = (flags & LEADZEROFLAG) ? '0' : ' ';
			for (; format_num > str_len; format_num--)
 3000d8c:	aa1303e0 	mov	x0, x19
 3000d90:	17ffff26 	b	3000a28 <vsnprintf+0x334>
				/* fallthrough */
hex:
			case 'x':
				n = (flags & LONGLONGFLAG) ? va_arg(ap, unsigned long long) :
				    (flags & LONGFLAG) ? va_arg(ap, unsigned long) :
					(flags & HALFHALFFLAG) ? (unsigned char)va_arg(ap, unsigned int) :
 3000d94:	11002281 	add	w1, w20, #0x8
 3000d98:	6b1f003f 	cmp	w1, wzr
 3000d9c:	540005cd 	b.le	3000e54 <vsnprintf+0x760>
 3000da0:	2a0103f4 	mov	w20, w1
 3000da4:	17fffeef 	b	3000960 <vsnprintf+0x26c>
					OUTPUT_CHAR('0');
					OUTPUT_CHAR((flags & CAPSFLAG) ? 'X': 'x');
				}
				goto _output_string;
			case 'n':
				ptr = va_arg(ap, void *);
 3000da8:	f94033e0 	ldr	x0, [sp,#96]
 3000dac:	8b34c000 	add	x0, x0, w20, sxtw
 3000db0:	2a0103f4 	mov	w20, w1
 3000db4:	17ffff6d 	b	3000b68 <vsnprintf+0x474>
				/* fallthrough */
			case 'i':
			case 'd':
				n = (flags & LONGLONGFLAG) ? va_arg(ap, long long) :
					(flags & LONGFLAG) ? va_arg(ap, long) :
					(flags & HALFHALFFLAG) ? (signed char)va_arg(ap, int) :
 3000db8:	11002281 	add	w1, w20, #0x8
 3000dbc:	6b1f003f 	cmp	w1, wzr
 3000dc0:	5400072d 	b.le	3000ea4 <vsnprintf+0x7b0>
 3000dc4:	2a0103f4 	mov	w20, w1
 3000dc8:	17ffffb3 	b	3000c94 <vsnprintf+0x5a0>
				flags |= LONGFLAG;
				/* fallthrough */
			case 'u':
				n = (flags & LONGLONGFLAG) ? va_arg(ap, unsigned long long) :
					(flags & LONGFLAG) ? va_arg(ap, unsigned long) :
					(flags & HALFHALFFLAG) ? (unsigned char)va_arg(ap, unsigned int) :
 3000dcc:	11002281 	add	w1, w20, #0x8
 3000dd0:	6b1f003f 	cmp	w1, wzr
 3000dd4:	5400072d 	b.le	3000eb8 <vsnprintf+0x7c4>
 3000dd8:	2a0103f4 	mov	w20, w1
 3000ddc:	17ffffa8 	b	3000c7c <vsnprintf+0x588>
				goto next_format;
			case '%':
				OUTPUT_CHAR('%');
				break;
			case 'c':
				uc = va_arg(ap, unsigned int);
 3000de0:	f94033e0 	ldr	x0, [sp,#96]
 3000de4:	8b34c000 	add	x0, x0, w20, sxtw
 3000de8:	2a0103f4 	mov	w20, w1
 3000dec:	17ffff4e 	b	3000b24 <vsnprintf+0x430>
				OUTPUT_CHAR(uc);
				break;
			case 's':
				s = va_arg(ap, const char *);
 3000df0:	f94033e0 	ldr	x0, [sp,#96]
 3000df4:	8b34c000 	add	x0, x0, w20, sxtw
 3000df8:	2a0103f4 	mov	w20, w1
 3000dfc:	17ffff78 	b	3000bdc <vsnprintf+0x4e8>
				count++;
			}

			/* pad to the right (if necessary) */
			for (; format_num > count; format_num--)
				OUTPUT_CHAR(' ');
 3000e00:	aa0003f3 	mov	x19, x0
 3000e04:	aa0103f7 	mov	x23, x1
 3000e08:	17fffe51 	b	300074c <vsnprintf+0x58>
					*(long *)ptr = chars_written;
				else if(flags & HALFHALFFLAG)
					*(signed char *)ptr = chars_written;
				else if(flags & HALFFLAG)
					*(short *)ptr = chars_written;
				else if(flags & SIZETFLAG)
 3000e0c:	3727f047 	tbnz	w7, #4, 3000c14 <vsnprintf+0x520>
					*(size_t *)ptr = chars_written;
				else
					*(int *)ptr = chars_written;
 3000e10:	b9000013 	str	w19, [x0]
 3000e14:	17fffe4c 	b	3000744 <vsnprintf+0x50>
hex:
			case 'x':
				n = (flags & LONGLONGFLAG) ? va_arg(ap, unsigned long long) :
				    (flags & LONGFLAG) ? va_arg(ap, unsigned long) :
					(flags & HALFHALFFLAG) ? (unsigned char)va_arg(ap, unsigned int) :
					(flags & HALFFLAG) ? (unsigned short)va_arg(ap, unsigned int) :
 3000e18:	11002281 	add	w1, w20, #0x8
 3000e1c:	6b1f003f 	cmp	w1, wzr
 3000e20:	5400056d 	b.le	3000ecc <vsnprintf+0x7d8>
 3000e24:	2a0103f4 	mov	w20, w1
 3000e28:	17ffffa2 	b	3000cb0 <vsnprintf+0x5bc>
				/* fallthrough */
			case 'u':
				n = (flags & LONGLONGFLAG) ? va_arg(ap, unsigned long long) :
					(flags & LONGFLAG) ? va_arg(ap, unsigned long) :
					(flags & HALFHALFFLAG) ? (unsigned char)va_arg(ap, unsigned int) :
					(flags & HALFFLAG) ? (unsigned short)va_arg(ap, unsigned int) :
 3000e2c:	11002281 	add	w1, w20, #0x8
 3000e30:	6b1f003f 	cmp	w1, wzr
 3000e34:	5400060d 	b.le	3000ef4 <vsnprintf+0x800>
 3000e38:	2a0103f4 	mov	w20, w1
 3000e3c:	17ffff2b 	b	3000ae8 <vsnprintf+0x3f4>
			case 'i':
			case 'd':
				n = (flags & LONGLONGFLAG) ? va_arg(ap, long long) :
					(flags & LONGFLAG) ? va_arg(ap, long) :
					(flags & HALFHALFFLAG) ? (signed char)va_arg(ap, int) :
					(flags & HALFFLAG) ? (short)va_arg(ap, int) :
 3000e40:	11002281 	add	w1, w20, #0x8
 3000e44:	6b1f003f 	cmp	w1, wzr
 3000e48:	540006ad 	b.le	3000f1c <vsnprintf+0x828>
 3000e4c:	2a0103f4 	mov	w20, w1
 3000e50:	17ffff1c 	b	3000ac0 <vsnprintf+0x3cc>
				/* fallthrough */
hex:
			case 'x':
				n = (flags & LONGLONGFLAG) ? va_arg(ap, unsigned long long) :
				    (flags & LONGFLAG) ? va_arg(ap, unsigned long) :
					(flags & HALFHALFFLAG) ? (unsigned char)va_arg(ap, unsigned int) :
 3000e54:	f94033e0 	ldr	x0, [sp,#96]
 3000e58:	8b34c000 	add	x0, x0, w20, sxtw
 3000e5c:	2a0103f4 	mov	w20, w1
			case 'X':
				flags |= CAPSFLAG;
				/* fallthrough */
hex:
			case 'x':
				n = (flags & LONGLONGFLAG) ? va_arg(ap, unsigned long long) :
 3000e60:	39400000 	ldrb	w0, [x0]
 3000e64:	17fffe6f 	b	3000820 <vsnprintf+0x12c>
				    (flags & LONGFLAG) ? va_arg(ap, unsigned long) :
					(flags & HALFHALFFLAG) ? (unsigned char)va_arg(ap, unsigned int) :
					(flags & HALFFLAG) ? (unsigned short)va_arg(ap, unsigned int) :
					(flags & SIZETFLAG) ? va_arg(ap, size_t) :
					va_arg(ap, unsigned int);
 3000e68:	11002281 	add	w1, w20, #0x8
 3000e6c:	6b1f003f 	cmp	w1, wzr
 3000e70:	540004cd 	b.le	3000f08 <vsnprintf+0x814>
 3000e74:	2a0103f4 	mov	w20, w1
 3000e78:	17ffff7b 	b	3000c64 <vsnprintf+0x570>
				n = (flags & LONGLONGFLAG) ? va_arg(ap, unsigned long long) :
					(flags & LONGFLAG) ? va_arg(ap, unsigned long) :
					(flags & HALFHALFFLAG) ? (unsigned char)va_arg(ap, unsigned int) :
					(flags & HALFFLAG) ? (unsigned short)va_arg(ap, unsigned int) :
					(flags & SIZETFLAG) ? va_arg(ap, size_t) :
					va_arg(ap, unsigned int);
 3000e7c:	11002281 	add	w1, w20, #0x8
 3000e80:	6b1f003f 	cmp	w1, wzr
 3000e84:	540002ed 	b.le	3000ee0 <vsnprintf+0x7ec>
 3000e88:	2a0103f4 	mov	w20, w1
 3000e8c:	17ffffb2 	b	3000d54 <vsnprintf+0x660>
				n = (flags & LONGLONGFLAG) ? va_arg(ap, long long) :
					(flags & LONGFLAG) ? va_arg(ap, long) :
					(flags & HALFHALFFLAG) ? (signed char)va_arg(ap, int) :
					(flags & HALFFLAG) ? (short)va_arg(ap, int) :
					(flags & SIZETFLAG) ? va_arg(ap, ssize_t) :
					va_arg(ap, int);
 3000e90:	11002281 	add	w1, w20, #0x8
 3000e94:	6b1f003f 	cmp	w1, wzr
 3000e98:	540004cd 	b.le	3000f30 <vsnprintf+0x83c>
 3000e9c:	2a0103f4 	mov	w20, w1
 3000ea0:	17ffffa2 	b	3000d28 <vsnprintf+0x634>
				/* fallthrough */
			case 'i':
			case 'd':
				n = (flags & LONGLONGFLAG) ? va_arg(ap, long long) :
					(flags & LONGFLAG) ? va_arg(ap, long) :
					(flags & HALFHALFFLAG) ? (signed char)va_arg(ap, int) :
 3000ea4:	f94033e0 	ldr	x0, [sp,#96]
 3000ea8:	8b34c000 	add	x0, x0, w20, sxtw
 3000eac:	2a0103f4 	mov	w20, w1
			case 'D':
				flags |= LONGFLAG;
				/* fallthrough */
			case 'i':
			case 'd':
				n = (flags & LONGLONGFLAG) ? va_arg(ap, long long) :
 3000eb0:	39800001 	ldrsb	x1, [x0]
 3000eb4:	17ffff7c 	b	3000ca4 <vsnprintf+0x5b0>
				flags |= LONGFLAG;
				/* fallthrough */
			case 'u':
				n = (flags & LONGLONGFLAG) ? va_arg(ap, unsigned long long) :
					(flags & LONGFLAG) ? va_arg(ap, unsigned long) :
					(flags & HALFHALFFLAG) ? (unsigned char)va_arg(ap, unsigned int) :
 3000eb8:	f94033e0 	ldr	x0, [sp,#96]
 3000ebc:	8b34c000 	add	x0, x0, w20, sxtw
 3000ec0:	2a0103f4 	mov	w20, w1
				goto _output_string;
			case 'U':
				flags |= LONGFLAG;
				/* fallthrough */
			case 'u':
				n = (flags & LONGLONGFLAG) ? va_arg(ap, unsigned long long) :
 3000ec4:	39400001 	ldrb	w1, [x0]
 3000ec8:	17fffeb2 	b	3000990 <vsnprintf+0x29c>
hex:
			case 'x':
				n = (flags & LONGLONGFLAG) ? va_arg(ap, unsigned long long) :
				    (flags & LONGFLAG) ? va_arg(ap, unsigned long) :
					(flags & HALFHALFFLAG) ? (unsigned char)va_arg(ap, unsigned int) :
					(flags & HALFFLAG) ? (unsigned short)va_arg(ap, unsigned int) :
 3000ecc:	f94033e0 	ldr	x0, [sp,#96]
 3000ed0:	8b34c000 	add	x0, x0, w20, sxtw
 3000ed4:	2a0103f4 	mov	w20, w1
			case 'X':
				flags |= CAPSFLAG;
				/* fallthrough */
hex:
			case 'x':
				n = (flags & LONGLONGFLAG) ? va_arg(ap, unsigned long long) :
 3000ed8:	79400000 	ldrh	w0, [x0]
 3000edc:	17fffe51 	b	3000820 <vsnprintf+0x12c>
				n = (flags & LONGLONGFLAG) ? va_arg(ap, unsigned long long) :
					(flags & LONGFLAG) ? va_arg(ap, unsigned long) :
					(flags & HALFHALFFLAG) ? (unsigned char)va_arg(ap, unsigned int) :
					(flags & HALFFLAG) ? (unsigned short)va_arg(ap, unsigned int) :
					(flags & SIZETFLAG) ? va_arg(ap, size_t) :
					va_arg(ap, unsigned int);
 3000ee0:	f94033e0 	ldr	x0, [sp,#96]
 3000ee4:	8b34c000 	add	x0, x0, w20, sxtw
 3000ee8:	2a0103f4 	mov	w20, w1
				goto _output_string;
			case 'U':
				flags |= LONGFLAG;
				/* fallthrough */
			case 'u':
				n = (flags & LONGLONGFLAG) ? va_arg(ap, unsigned long long) :
 3000eec:	b9400001 	ldr	w1, [x0]
 3000ef0:	17fffea8 	b	3000990 <vsnprintf+0x29c>
					(flags & LONGFLAG) ? va_arg(ap, unsigned long) :
					(flags & HALFHALFFLAG) ? (unsigned char)va_arg(ap, unsigned int) :
					(flags & HALFFLAG) ? (unsigned short)va_arg(ap, unsigned int) :
 3000ef4:	f94033e0 	ldr	x0, [sp,#96]
 3000ef8:	8b34c000 	add	x0, x0, w20, sxtw
 3000efc:	2a0103f4 	mov	w20, w1
				goto _output_string;
			case 'U':
				flags |= LONGFLAG;
				/* fallthrough */
			case 'u':
				n = (flags & LONGLONGFLAG) ? va_arg(ap, unsigned long long) :
 3000f00:	79400001 	ldrh	w1, [x0]
 3000f04:	17fffea3 	b	3000990 <vsnprintf+0x29c>
				n = (flags & LONGLONGFLAG) ? va_arg(ap, unsigned long long) :
				    (flags & LONGFLAG) ? va_arg(ap, unsigned long) :
					(flags & HALFHALFFLAG) ? (unsigned char)va_arg(ap, unsigned int) :
					(flags & HALFFLAG) ? (unsigned short)va_arg(ap, unsigned int) :
					(flags & SIZETFLAG) ? va_arg(ap, size_t) :
					va_arg(ap, unsigned int);
 3000f08:	f94033e0 	ldr	x0, [sp,#96]
 3000f0c:	8b34c000 	add	x0, x0, w20, sxtw
 3000f10:	2a0103f4 	mov	w20, w1
			case 'X':
				flags |= CAPSFLAG;
				/* fallthrough */
hex:
			case 'x':
				n = (flags & LONGLONGFLAG) ? va_arg(ap, unsigned long long) :
 3000f14:	b9400000 	ldr	w0, [x0]
 3000f18:	17fffe42 	b	3000820 <vsnprintf+0x12c>
			case 'i':
			case 'd':
				n = (flags & LONGLONGFLAG) ? va_arg(ap, long long) :
					(flags & LONGFLAG) ? va_arg(ap, long) :
					(flags & HALFHALFFLAG) ? (signed char)va_arg(ap, int) :
					(flags & HALFFLAG) ? (short)va_arg(ap, int) :
 3000f1c:	f94033e0 	ldr	x0, [sp,#96]
 3000f20:	8b34c000 	add	x0, x0, w20, sxtw
 3000f24:	2a0103f4 	mov	w20, w1
			case 'D':
				flags |= LONGFLAG;
				/* fallthrough */
			case 'i':
			case 'd':
				n = (flags & LONGLONGFLAG) ? va_arg(ap, long long) :
 3000f28:	79800001 	ldrsh	x1, [x0]
 3000f2c:	17fffee9 	b	3000ad0 <vsnprintf+0x3dc>
					(flags & LONGFLAG) ? va_arg(ap, long) :
					(flags & HALFHALFFLAG) ? (signed char)va_arg(ap, int) :
					(flags & HALFFLAG) ? (short)va_arg(ap, int) :
					(flags & SIZETFLAG) ? va_arg(ap, ssize_t) :
					va_arg(ap, int);
 3000f30:	f94033e0 	ldr	x0, [sp,#96]
 3000f34:	8b34c000 	add	x0, x0, w20, sxtw
 3000f38:	2a0103f4 	mov	w20, w1
			case 'D':
				flags |= LONGFLAG;
				/* fallthrough */
			case 'i':
			case 'd':
				n = (flags & LONGLONGFLAG) ? va_arg(ap, long long) :
 3000f3c:	b9800001 	ldrsw	x1, [x0]
 3000f40:	17ffff7e 	b	3000d38 <vsnprintf+0x644>

0000000003000f44 <printf>:
	return err;
}


int printf(const char *fmt, ...)
{
 3000f44:	d10883ff 	sub	sp, sp, #0x220
 3000f48:	a9bf7bf3 	stp	x19, x30, [sp,#-16]!
	int err;

	va_list ap;
	va_start(ap, fmt);
 3000f4c:	9108c3e8 	add	x8, sp, #0x230
 3000f50:	f9001be8 	str	x8, [sp,#48]
 3000f54:	f9001fe8 	str	x8, [sp,#56]
 3000f58:	128006e8 	mov	w8, #0xffffffc8            	// #-56
	return err;
}


int printf(const char *fmt, ...)
{
 3000f5c:	f9010fe5 	str	x5, [sp,#536]
	int err;

	va_list ap;
	va_start(ap, fmt);
 3000f60:	9107c3e9 	add	x9, sp, #0x1f0
 3000f64:	b9004be8 	str	w8, [sp,#72]
 3000f68:	12800fe8 	mov	w8, #0xffffff80            	// #-128
	return err;
}


int printf(const char *fmt, ...)
{
 3000f6c:	f90113e6 	str	x6, [sp,#544]
 3000f70:	f90117e7 	str	x7, [sp,#552]
	int err;

	va_list ap;
	va_start(ap, fmt);
 3000f74:	f90023e9 	str	x9, [sp,#64]
 3000f78:	b9004fe8 	str	w8, [sp,#76]
	return err;
}


int printf(const char *fmt, ...)
{
 3000f7c:	f900ffe1 	str	x1, [sp,#504]
static int _dvprintf(const char *fmt, va_list ap)
{
	char buf[256];
	int err;

	err = vsnprintf(buf, sizeof(buf), fmt, ap);
 3000f80:	d2802001 	mov	x1, #0x100                 	// #256
	return err;
}


int printf(const char *fmt, ...)
{
 3000f84:	f90103e2 	str	x2, [sp,#512]
static int _dvprintf(const char *fmt, va_list ap)
{
	char buf[256];
	int err;

	err = vsnprintf(buf, sizeof(buf), fmt, ap);
 3000f88:	aa0003e2 	mov	x2, x0
	return err;
}


int printf(const char *fmt, ...)
{
 3000f8c:	f90107e3 	str	x3, [sp,#520]
 3000f90:	9105c3e0 	add	x0, sp, #0x170
 3000f94:	f9010be4 	str	x4, [sp,#528]
 3000f98:	910603e4 	add	x4, sp, #0x180
 3000f9c:	a9432fea 	ldp	x10, x11, [sp,#48]
 3000fa0:	a94427e8 	ldp	x8, x9, [sp,#64]
 3000fa4:	3d800000 	str	q0, [x0]
static int _dvprintf(const char *fmt, va_list ap)
{
	char buf[256];
	int err;

	err = vsnprintf(buf, sizeof(buf), fmt, ap);
 3000fa8:	910043e3 	add	x3, sp, #0x10
	return err;
}


int printf(const char *fmt, ...)
{
 3000fac:	3d800081 	str	q1, [x4]
 3000fb0:	910643e4 	add	x4, sp, #0x190
static int _dvprintf(const char *fmt, va_list ap)
{
	char buf[256];
	int err;

	err = vsnprintf(buf, sizeof(buf), fmt, ap);
 3000fb4:	9101c3e0 	add	x0, sp, #0x70
	return err;
}


int printf(const char *fmt, ...)
{
 3000fb8:	3d800082 	str	q2, [x4]
 3000fbc:	910683e4 	add	x4, sp, #0x1a0
 3000fc0:	3d800083 	str	q3, [x4]
 3000fc4:	9106c3e4 	add	x4, sp, #0x1b0
 3000fc8:	3d800084 	str	q4, [x4]
 3000fcc:	910703e4 	add	x4, sp, #0x1c0
 3000fd0:	3d800085 	str	q5, [x4]
 3000fd4:	910743e4 	add	x4, sp, #0x1d0
 3000fd8:	3d800086 	str	q6, [x4]
 3000fdc:	910783e4 	add	x4, sp, #0x1e0
 3000fe0:	3d800087 	str	q7, [x4]
 3000fe4:	a9052fea 	stp	x10, x11, [sp,#80]
 3000fe8:	a90627e8 	stp	x8, x9, [sp,#96]
static int _dvprintf(const char *fmt, va_list ap)
{
	char buf[256];
	int err;

	err = vsnprintf(buf, sizeof(buf), fmt, ap);
 3000fec:	a9012fea 	stp	x10, x11, [sp,#16]
 3000ff0:	a90227e8 	stp	x8, x9, [sp,#32]
 3000ff4:	97fffdc0 	bl	30006f4 <vsnprintf>
 3000ff8:	2a0003f3 	mov	w19, w0

	prints(buf);
 3000ffc:	9101c3e0 	add	x0, sp, #0x70
 3001000:	94001434 	bl	30060d0 <prints>
	va_start(ap, fmt);
	err = _dvprintf(fmt, ap);
	va_end(ap);

	return err;
}
 3001004:	2a1303e0 	mov	w0, w19
 3001008:	a8c17bf3 	ldp	x19, x30, [sp],#16
 300100c:	910883ff 	add	sp, sp, #0x220
 3001010:	d65f03c0 	ret

0000000003001014 <snprintf>:

	return err;
}

int snprintf(char *str, size_t len, const char *fmt, ...)
{
 3001014:	d10403ff 	sub	sp, sp, #0x100
	int err;

	va_list ap;
	va_start(ap, fmt);
 3001018:	910403e8 	add	x8, sp, #0x100
 300101c:	910343e9 	add	x9, sp, #0xd0

	return err;
}

int snprintf(char *str, size_t len, const char *fmt, ...)
{
 3001020:	3d8017e0 	str	q0, [sp,#80]
	int err;

	va_list ap;
	va_start(ap, fmt);
 3001024:	f9001be8 	str	x8, [sp,#48]
 3001028:	f9001fe8 	str	x8, [sp,#56]
 300102c:	128004e8 	mov	w8, #0xffffffd8            	// #-40
 3001030:	f90023e9 	str	x9, [sp,#64]
 3001034:	b9004be8 	str	w8, [sp,#72]
 3001038:	12800fe8 	mov	w8, #0xffffff80            	// #-128
 300103c:	b9004fe8 	str	w8, [sp,#76]

	return err;
}

int snprintf(char *str, size_t len, const char *fmt, ...)
{
 3001040:	f90073e4 	str	x4, [sp,#224]
	int err;

	va_list ap;
	va_start(ap, fmt);
	err = vsnprintf(str, len, fmt, ap);
 3001044:	a94327e8 	ldp	x8, x9, [sp,#48]

	return err;
}

int snprintf(char *str, size_t len, const char *fmt, ...)
{
 3001048:	f90077e5 	str	x5, [sp,#232]
	int err;

	va_list ap;
	va_start(ap, fmt);
	err = vsnprintf(str, len, fmt, ap);
 300104c:	a94417e4 	ldp	x4, x5, [sp,#64]

	return err;
}

int snprintf(char *str, size_t len, const char *fmt, ...)
{
 3001050:	f9006fe3 	str	x3, [sp,#216]
	int err;

	va_list ap;
	va_start(ap, fmt);
	err = vsnprintf(str, len, fmt, ap);
 3001054:	910043e3 	add	x3, sp, #0x10

	return err;
}

int snprintf(char *str, size_t len, const char *fmt, ...)
{
 3001058:	f90003fe 	str	x30, [sp]
 300105c:	f9007be6 	str	x6, [sp,#240]
 3001060:	3d801be1 	str	q1, [sp,#96]
 3001064:	f9007fe7 	str	x7, [sp,#248]
 3001068:	3d801fe2 	str	q2, [sp,#112]
 300106c:	3d8023e3 	str	q3, [sp,#128]
 3001070:	3d8027e4 	str	q4, [sp,#144]
 3001074:	3d802be5 	str	q5, [sp,#160]
 3001078:	3d802fe6 	str	q6, [sp,#176]
 300107c:	3d8033e7 	str	q7, [sp,#192]
	int err;

	va_list ap;
	va_start(ap, fmt);
	err = vsnprintf(str, len, fmt, ap);
 3001080:	a90127e8 	stp	x8, x9, [sp,#16]
 3001084:	a90217e4 	stp	x4, x5, [sp,#32]
 3001088:	97fffd9b 	bl	30006f4 <vsnprintf>
	va_end(ap);

	return err;
}
 300108c:	f94003fe 	ldr	x30, [sp]
 3001090:	910403ff 	add	sp, sp, #0x100
 3001094:	d65f03c0 	ret

0000000003001098 <vsprintf>:

	return &buf[pos];
}

int vsprintf(char *str, const char *fmt, va_list ap)
{
 3001098:	aa0203e4 	mov	x4, x2
 300109c:	f81d0ffe 	str	x30, [sp,#-48]!
	return vsnprintf(str, INT_MAX, fmt, ap);
 30010a0:	aa0103e2 	mov	x2, x1
 30010a4:	b2407be1 	mov	x1, #0x7fffffff            	// #2147483647
 30010a8:	910043e3 	add	x3, sp, #0x10
 30010ac:	a9401c86 	ldp	x6, x7, [x4]
 30010b0:	a9411484 	ldp	x4, x5, [x4,#16]
 30010b4:	a90217e4 	stp	x4, x5, [sp,#32]
 30010b8:	a9011fe6 	stp	x6, x7, [sp,#16]
 30010bc:	97fffd8e 	bl	30006f4 <vsnprintf>
}
 30010c0:	f84307fe 	ldr	x30, [sp],#48
 30010c4:	d65f03c0 	ret

00000000030010c8 <sprintf>:

	return err;
}

int sprintf(char *str, const char *fmt, ...)
{
 30010c8:	d10483ff 	sub	sp, sp, #0x120
	int err;

	va_list ap;
	va_start(ap, fmt);
 30010cc:	910483e8 	add	x8, sp, #0x120
 30010d0:	9103c3e9 	add	x9, sp, #0xf0

	return err;
}

int sprintf(char *str, const char *fmt, ...)
{
 30010d4:	3d801fe0 	str	q0, [sp,#112]
	int err;

	va_list ap;
	va_start(ap, fmt);
 30010d8:	f9001be8 	str	x8, [sp,#48]
 30010dc:	f9001fe8 	str	x8, [sp,#56]
 30010e0:	128005e8 	mov	w8, #0xffffffd0            	// #-48
 30010e4:	f90023e9 	str	x9, [sp,#64]
 30010e8:	b9004be8 	str	w8, [sp,#72]
 30010ec:	12800fe8 	mov	w8, #0xffffff80            	// #-128
 30010f0:	b9004fe8 	str	w8, [sp,#76]

	return err;
}

int sprintf(char *str, const char *fmt, ...)
{
 30010f4:	f90083e4 	str	x4, [sp,#256]
 30010f8:	a94327e8 	ldp	x8, x9, [sp,#48]
 30010fc:	f90087e5 	str	x5, [sp,#264]
 3001100:	a94417e4 	ldp	x4, x5, [sp,#64]
 3001104:	f9007be2 	str	x2, [sp,#240]
	return &buf[pos];
}

int vsprintf(char *str, const char *fmt, va_list ap)
{
	return vsnprintf(str, INT_MAX, fmt, ap);
 3001108:	aa0103e2 	mov	x2, x1

	return err;
}

int sprintf(char *str, const char *fmt, ...)
{
 300110c:	f9007fe3 	str	x3, [sp,#248]
	return &buf[pos];
}

int vsprintf(char *str, const char *fmt, va_list ap)
{
	return vsnprintf(str, INT_MAX, fmt, ap);
 3001110:	b2407be1 	mov	x1, #0x7fffffff            	// #2147483647
 3001114:	910043e3 	add	x3, sp, #0x10

	return err;
}

int sprintf(char *str, const char *fmt, ...)
{
 3001118:	f90003fe 	str	x30, [sp]
 300111c:	f9008be6 	str	x6, [sp,#272]
 3001120:	3d8023e1 	str	q1, [sp,#128]
 3001124:	f9008fe7 	str	x7, [sp,#280]
 3001128:	3d8027e2 	str	q2, [sp,#144]
 300112c:	3d802be3 	str	q3, [sp,#160]
 3001130:	3d802fe4 	str	q4, [sp,#176]
 3001134:	3d8033e5 	str	q5, [sp,#192]
 3001138:	3d8037e6 	str	q6, [sp,#208]
 300113c:	3d803be7 	str	q7, [sp,#224]
 3001140:	a90527e8 	stp	x8, x9, [sp,#80]
 3001144:	a90617e4 	stp	x4, x5, [sp,#96]
	return &buf[pos];
}

int vsprintf(char *str, const char *fmt, va_list ap)
{
	return vsnprintf(str, INT_MAX, fmt, ap);
 3001148:	a90127e8 	stp	x8, x9, [sp,#16]
 300114c:	a90217e4 	stp	x4, x5, [sp,#32]
 3001150:	97fffd69 	bl	30006f4 <vsnprintf>
	va_start(ap, fmt);
	err = vsprintf(str, fmt, ap);
	va_end(ap);

	return err;
}
 3001154:	f94003fe 	ldr	x30, [sp]
 3001158:	910483ff 	add	sp, sp, #0x120
 300115c:	d65f03c0 	ret

0000000003001160 <wait_done_timeout>:


#pragma GCC push_options
#pragma GCC optimize ("O2")

void wait_done_timeout(volatile UINT32 *addr, UINT32 mask, UINT32 value){
 3001160:	a9bd53f3 	stp	x19, x20, [sp,#-48]!
 3001164:	aa0003f4 	mov	x20, x0
	unsigned int n = 0;

	while (((*addr) &mask) != value)
 3001168:	5298d833 	mov	w19, #0xc6c1                	// #50881
 300116c:	72a005b3 	movk	w19, #0x2d, lsl #16


#pragma GCC push_options
#pragma GCC optimize ("O2")

void wait_done_timeout(volatile UINT32 *addr, UINT32 mask, UINT32 value){
 3001170:	a9015bf5 	stp	x21, x22, [sp,#16]
 3001174:	f90013fe 	str	x30, [sp,#32]
 3001178:	2a0103f5 	mov	w21, w1
 300117c:	2a0203f6 	mov	w22, w2
	unsigned int n = 0;

	while (((*addr) &mask) != value)
 3001180:	b9400000 	ldr	w0, [x0]
 3001184:	0a010000 	and	w0, w0, w1
 3001188:	6b02001f 	cmp	w0, w2
 300118c:	54000081 	b.ne	300119c <wait_done_timeout+0x3c>
 3001190:	1400000a 	b	30011b8 <wait_done_timeout+0x58>
	{
		//timeout 3s
		if(n++ > 3000000)
 3001194:	71000673 	subs	w19, w19, #0x1
 3001198:	54000200 	b.eq	30011d8 <wait_done_timeout+0x78>
			prints(",0x");
			print_hex(value);
			prints(")\n");
			return;
	 	}
		udelay(0, 1);
 300119c:	52800021 	mov	w1, #0x1                   	// #1
 30011a0:	52800000 	mov	w0, #0x0                   	// #0
 30011a4:	94001244 	bl	3005ab4 <udelay>
#pragma GCC optimize ("O2")

void wait_done_timeout(volatile UINT32 *addr, UINT32 mask, UINT32 value){
	unsigned int n = 0;

	while (((*addr) &mask) != value)
 30011a8:	b9400280 	ldr	w0, [x20]
 30011ac:	0a150000 	and	w0, w0, w21
 30011b0:	6b16001f 	cmp	w0, w22
 30011b4:	54ffff01 	b.ne	3001194 <wait_done_timeout+0x34>
			prints(")\n");
			return;
	 	}
		udelay(0, 1);
	}
	if (((*addr) &mask) != value)
 30011b8:	b9400280 	ldr	w0, [x20]
 30011bc:	0a150015 	and	w21, w0, w21
 30011c0:	6b1602bf 	cmp	w21, w22
 30011c4:	54000341 	b.ne	300122c <wait_done_timeout+0xcc>
	{
		faultDetect();
	}
}
 30011c8:	a9415bf5 	ldp	x21, x22, [sp,#16]
 30011cc:	f94013fe 	ldr	x30, [sp,#32]
 30011d0:	a8c353f3 	ldp	x19, x20, [sp],#48
 30011d4:	d65f03c0 	ret
	while (((*addr) &mask) != value)
	{
		//timeout 3s
		if(n++ > 3000000)
		{
			prints("emmc timeout(addr,mask,value)=(0x");
 30011d8:	90000040 	adrp	x0, 3009000 <el3_vectors>
 30011dc:	91346000 	add	x0, x0, #0xd18
			print_hex(addr);
			prints(",0x");
 30011e0:	90000053 	adrp	x19, 3009000 <el3_vectors>
 30011e4:	91350273 	add	x19, x19, #0xd40
	while (((*addr) &mask) != value)
	{
		//timeout 3s
		if(n++ > 3000000)
		{
			prints("emmc timeout(addr,mask,value)=(0x");
 30011e8:	940013ba 	bl	30060d0 <prints>
			print_hex(addr);
 30011ec:	2a1403e0 	mov	w0, w20
 30011f0:	940013ea 	bl	3006198 <print_hex>
			prints(",0x");
 30011f4:	aa1303e0 	mov	x0, x19
 30011f8:	940013b6 	bl	30060d0 <prints>
			print_hex(mask);
 30011fc:	2a1503e0 	mov	w0, w21
 3001200:	940013e6 	bl	3006198 <print_hex>
			prints(",0x");
 3001204:	aa1303e0 	mov	x0, x19
 3001208:	940013b2 	bl	30060d0 <prints>
			print_hex(value);
 300120c:	2a1603e0 	mov	w0, w22
 3001210:	940013e2 	bl	3006198 <print_hex>
	}
	if (((*addr) &mask) != value)
	{
		faultDetect();
	}
}
 3001214:	f94013fe 	ldr	x30, [sp,#32]
			print_hex(addr);
			prints(",0x");
			print_hex(mask);
			prints(",0x");
			print_hex(value);
			prints(")\n");
 3001218:	90000040 	adrp	x0, 3009000 <el3_vectors>
 300121c:	91352000 	add	x0, x0, #0xd48
	}
	if (((*addr) &mask) != value)
	{
		faultDetect();
	}
}
 3001220:	a9415bf5 	ldp	x21, x22, [sp,#16]
 3001224:	a8c353f3 	ldp	x19, x20, [sp],#48
			print_hex(addr);
			prints(",0x");
			print_hex(mask);
			prints(",0x");
			print_hex(value);
			prints(")\n");
 3001228:	140013aa 	b	30060d0 <prints>
	 	}
		udelay(0, 1);
	}
	if (((*addr) &mask) != value)
	{
		faultDetect();
 300122c:	94001828 	bl	30072cc <faultDetect>

0000000003001230 <check_error>:


UINT32 check_error(){
	//int i;
	UINT32 error;
	error = cr_readl(CR_EMMC_RINTSTS);
 3001230:	d2840880 	mov	x0, #0x2044                	// #8260
 3001234:	f2b30020 	movk	x0, #0x9801, lsl #16
		faultDetect();
	}
}


UINT32 check_error(){
 3001238:	a9bf7bf3 	stp	x19, x30, [sp,#-16]!
	//int i;
	UINT32 error;
	error = cr_readl(CR_EMMC_RINTSTS);
 300123c:	b9400013 	ldr	w19, [x0]
	CP15ISB;
 3001240:	d5033fdf 	isb
	sync();
 3001244:	97fffc32 	bl	300030c <sync>

	prints("Emmc STATUS = 0x");
	print_hex(cr_readl(CR_EMMC_STATUS));
	prints("\n");
#endif
	if ((error&CR_EMMC_EBE)==CR_EMMC_EBE)
 3001248:	377802d3 	tbnz	w19, #15, 30012a0 <check_error+0x70>
	{
		prints("End bit error \n");
		return CR_EMMC_EBE;
	}
	else if ((error&CR_EMMC_SBE)==CR_EMMC_SBE)
 300124c:	376801f3 	tbnz	w19, #13, 3001288 <check_error+0x58>
	{
		prints("Start bit error \n");
		return CR_EMMC_SBE;
	}
	else if ((error&CR_EMMC_HLE)==CR_EMMC_HLE)
 3001250:	37600353 	tbnz	w19, #12, 30012b8 <check_error+0x88>
	{
		prints("Hardware locked write error \n");
		return CR_EMMC_HLE;
	}
	else if ((error&CR_EMMC_FRUN)==CR_EMMC_FRUN)
 3001254:	375803f3 	tbnz	w19, #11, 30012d0 <check_error+0xa0>
	{
		prints("FIFO underrun/overrun error \n");
		return CR_EMMC_FRUN;
	}
	else if ((error&CR_EMMC_HTO)==CR_EMMC_HTO)
 3001258:	37500473 	tbnz	w19, #10, 30012e4 <check_error+0xb4>
	{
		prints("Data starvation by host timeout\n");
		return CR_EMMC_HTO;
	}
	else if ((error&CR_EMMC_DRTO)==CR_EMMC_DRTO)
 300125c:	374804f3 	tbnz	w19, #9, 30012f8 <check_error+0xc8>
	{
		prints("Data read timeout\n");
		return CR_EMMC_DRTO;
		}
	else if ((error&CR_EMMC_RTO)==CR_EMMC_RTO)
 3001260:	37400573 	tbnz	w19, #8, 300130c <check_error+0xdc>
	{
		prints("Response timeout\n");
		return CR_EMMC_RTO;
	}
	else if ((error&CR_EMMC_DCRC)==CR_EMMC_DCRC)
 3001264:	373805f3 	tbnz	w19, #7, 3001320 <check_error+0xf0>
	{
		prints("Data CRC error\n");
		return CR_EMMC_DCRC;
	}
	else if ((error&CR_EMMC_RCRC)==CR_EMMC_RCRC)
 3001268:	37300673 	tbnz	w19, #6, 3001334 <check_error+0x104>
	{
		prints("Response CRC error\n");
		return CR_EMMC_RCRC;
	}
	else if ((error&CR_EMMC_RE)==CR_EMMC_RE)
 300126c:	121f0260 	and	w0, w19, #0x2
 3001270:	36080153 	tbz	w19, #1, 3001298 <check_error+0x68>
	{
		prints("Response error\n");
 3001274:	90000040 	adrp	x0, 3009000 <el3_vectors>
 3001278:	9138e000 	add	x0, x0, #0xe38
 300127c:	94001395 	bl	30060d0 <prints>
		return CR_EMMC_RE;
 3001280:	52800040 	mov	w0, #0x2                   	// #2
 3001284:	14000005 	b	3001298 <check_error+0x68>
		prints("End bit error \n");
		return CR_EMMC_EBE;
	}
	else if ((error&CR_EMMC_SBE)==CR_EMMC_SBE)
	{
		prints("Start bit error \n");
 3001288:	90000040 	adrp	x0, 3009000 <el3_vectors>
 300128c:	91358000 	add	x0, x0, #0xd60
 3001290:	94001390 	bl	30060d0 <prints>
		return CR_EMMC_SBE;
 3001294:	52840000 	mov	w0, #0x2000                	// #8192
#endif
		return 0;
	}
	return 0;
	sync();
}
 3001298:	a8c17bf3 	ldp	x19, x30, [sp],#16
 300129c:	d65f03c0 	ret
	print_hex(cr_readl(CR_EMMC_STATUS));
	prints("\n");
#endif
	if ((error&CR_EMMC_EBE)==CR_EMMC_EBE)
	{
		prints("End bit error \n");
 30012a0:	90000040 	adrp	x0, 3009000 <el3_vectors>
 30012a4:	91354000 	add	x0, x0, #0xd50
 30012a8:	9400138a 	bl	30060d0 <prints>
		return CR_EMMC_EBE;
 30012ac:	52900000 	mov	w0, #0x8000                	// #32768
#endif
		return 0;
	}
	return 0;
	sync();
}
 30012b0:	a8c17bf3 	ldp	x19, x30, [sp],#16
 30012b4:	d65f03c0 	ret
		prints("Start bit error \n");
		return CR_EMMC_SBE;
	}
	else if ((error&CR_EMMC_HLE)==CR_EMMC_HLE)
	{
		prints("Hardware locked write error \n");
 30012b8:	90000040 	adrp	x0, 3009000 <el3_vectors>
 30012bc:	9135e000 	add	x0, x0, #0xd78
 30012c0:	94001384 	bl	30060d0 <prints>
		return CR_EMMC_HLE;
 30012c4:	52820000 	mov	w0, #0x1000                	// #4096
#endif
		return 0;
	}
	return 0;
	sync();
}
 30012c8:	a8c17bf3 	ldp	x19, x30, [sp],#16
 30012cc:	d65f03c0 	ret
		prints("Hardware locked write error \n");
		return CR_EMMC_HLE;
	}
	else if ((error&CR_EMMC_FRUN)==CR_EMMC_FRUN)
	{
		prints("FIFO underrun/overrun error \n");
 30012d0:	90000040 	adrp	x0, 3009000 <el3_vectors>
 30012d4:	91366000 	add	x0, x0, #0xd98
 30012d8:	9400137e 	bl	30060d0 <prints>
		return CR_EMMC_FRUN;
 30012dc:	52810000 	mov	w0, #0x800                 	// #2048
 30012e0:	17ffffee 	b	3001298 <check_error+0x68>
	}
	else if ((error&CR_EMMC_HTO)==CR_EMMC_HTO)
	{
		prints("Data starvation by host timeout\n");
 30012e4:	90000040 	adrp	x0, 3009000 <el3_vectors>
 30012e8:	9136e000 	add	x0, x0, #0xdb8
 30012ec:	94001379 	bl	30060d0 <prints>
		return CR_EMMC_HTO;
 30012f0:	52808000 	mov	w0, #0x400                 	// #1024
 30012f4:	17ffffe9 	b	3001298 <check_error+0x68>
	}
	else if ((error&CR_EMMC_DRTO)==CR_EMMC_DRTO)
	{
		prints("Data read timeout\n");
 30012f8:	90000040 	adrp	x0, 3009000 <el3_vectors>
 30012fc:	91378000 	add	x0, x0, #0xde0
 3001300:	94001374 	bl	30060d0 <prints>
		return CR_EMMC_DRTO;
 3001304:	52804000 	mov	w0, #0x200                 	// #512
 3001308:	17ffffe4 	b	3001298 <check_error+0x68>
		}
	else if ((error&CR_EMMC_RTO)==CR_EMMC_RTO)
	{
		prints("Response timeout\n");
 300130c:	90000040 	adrp	x0, 3009000 <el3_vectors>
 3001310:	9137e000 	add	x0, x0, #0xdf8
 3001314:	9400136f 	bl	30060d0 <prints>
		return CR_EMMC_RTO;
 3001318:	52802000 	mov	w0, #0x100                 	// #256
 300131c:	17ffffdf 	b	3001298 <check_error+0x68>
	}
	else if ((error&CR_EMMC_DCRC)==CR_EMMC_DCRC)
	{
		prints("Data CRC error\n");
 3001320:	90000040 	adrp	x0, 3009000 <el3_vectors>
 3001324:	91384000 	add	x0, x0, #0xe10
 3001328:	9400136a 	bl	30060d0 <prints>
		return CR_EMMC_DCRC;
 300132c:	52801000 	mov	w0, #0x80                  	// #128
 3001330:	17ffffda 	b	3001298 <check_error+0x68>
	}
	else if ((error&CR_EMMC_RCRC)==CR_EMMC_RCRC)
	{
		prints("Response CRC error\n");
 3001334:	90000040 	adrp	x0, 3009000 <el3_vectors>
 3001338:	91388000 	add	x0, x0, #0xe20
 300133c:	94001365 	bl	30060d0 <prints>
		return CR_EMMC_RCRC;
 3001340:	52800800 	mov	w0, #0x40                  	// #64
 3001344:	17ffffd5 	b	3001298 <check_error+0x68>

0000000003001348 <reset_ip>:
	return 0;
	sync();
}

void reset_ip(){
	cr_writel(0x00000081, CR_EMMC_BMOD); //reset
 3001348:	d2841000 	mov	x0, #0x2080                	// #8320
 300134c:	f2b30020 	movk	x0, #0x9801, lsl #16
 3001350:	52801021 	mov	w1, #0x81                  	// #129
 3001354:	b9000001 	str	w1, [x0]
	sync();
 3001358:	17fffbed 	b	300030c <sync>

000000000300135c <emmc_send_cmd_no_rsp>:
}

//rsp_con -  0: no rsp, 1: short rsp, 3: long rsp
int emmc_send_cmd_no_rsp(UINT32 cmd_idx, UINT32 sd_arg, UINT32 rsp_con, UINT32 crc){
 300135c:	a9bc53f3 	stp	x19, x20, [sp,#-64]!
 3001360:	2a0203f3 	mov	w19, w2
 3001364:	2a0303f4 	mov	w20, w3
 3001368:	a9015bf5 	stp	x21, x22, [sp,#16]
	//int ret_error = 0;

	cr_writel(0x0000ffff, CR_EMMC_RINTSTS); 		// clear all interrupt status
 300136c:	d2840895 	mov	x21, #0x2044                	// #8260
 3001370:	f2b30035 	movk	x21, #0x9801, lsl #16
	cr_writel(0x00000081, CR_EMMC_BMOD); //reset
	sync();
}

//rsp_con -  0: no rsp, 1: short rsp, 3: long rsp
int emmc_send_cmd_no_rsp(UINT32 cmd_idx, UINT32 sd_arg, UINT32 rsp_con, UINT32 crc){
 3001374:	a90263f7 	stp	x23, x24, [sp,#32]
 3001378:	f9001bfe 	str	x30, [sp,#48]
	//int ret_error = 0;

	cr_writel(0x0000ffff, CR_EMMC_RINTSTS); 		// clear all interrupt status
 300137c:	529ffff6 	mov	w22, #0xffff                	// #65535
	cr_writel(0x00000081, CR_EMMC_BMOD); //reset
	sync();
}

//rsp_con -  0: no rsp, 1: short rsp, 3: long rsp
int emmc_send_cmd_no_rsp(UINT32 cmd_idx, UINT32 sd_arg, UINT32 rsp_con, UINT32 crc){
 3001380:	2a0003f7 	mov	w23, w0
 3001384:	2a0103f8 	mov	w24, w1
	//int ret_error = 0;

	cr_writel(0x0000ffff, CR_EMMC_RINTSTS); 		// clear all interrupt status
 3001388:	b90002b6 	str	w22, [x21]
	CP15ISB;
 300138c:	d5033fdf 	isb
	sync();
 3001390:	97fffbdf 	bl	300030c <sync>
	cr_writel(0x0000ffff, CR_EMMC_INTMASK); 		// enable all interrupts
 3001394:	d2840480 	mov	x0, #0x2024                	// #8228
 3001398:	f2b30020 	movk	x0, #0x9801, lsl #16
 300139c:	b9000016 	str	w22, [x0]
	CP15ISB;
 30013a0:	d5033fdf 	isb
	sync();
 30013a4:	97fffbda 	bl	300030c <sync>
	cr_writel(sd_arg, CR_EMMC_CMDARG);	// cmd argument
 30013a8:	d2840500 	mov	x0, #0x2028                	// #8232
 30013ac:	f2b30020 	movk	x0, #0x9801, lsl #16
 30013b0:	b9000018 	str	w24, [x0]
	CP15ISB;
 30013b4:	d5033fdf 	isb
	sync();
 30013b8:	97fffbd5 	bl	300030c <sync>
 30013bc:	2a1422f4 	orr	w20, w23, w20, lsl #8
#ifdef CR_DEBUG
	prints("Emmc cmd = 0x");
	print_hex(cmd_idx);
	prints("\n");
#endif
	cr_writel(0xa0000000|cmd_idx|(rsp_con<<6)|(crc<<8), CR_EMMC_CMD);	// cmd Register
 30013c0:	d2840581 	mov	x1, #0x202c                	// #8236
 30013c4:	f2b30021 	movk	x1, #0x9801, lsl #16
 30013c8:	52b40002 	mov	w2, #0xa0000000            	// #-1610612736
 30013cc:	2a131853 	orr	w19, w2, w19, lsl #6
 30013d0:	2a130293 	orr	w19, w20, w19
 30013d4:	b9000033 	str	w19, [x1]
	CP15ISB;
 30013d8:	d5033fdf 	isb
	sync();
 30013dc:	97fffbcc 	bl	300030c <sync>
	wait_done_timeout((UINT32 *)CR_EMMC_RINTSTS, 0x4, 0x4);
 30013e0:	52800082 	mov	w2, #0x4                   	// #4
 30013e4:	aa1503e0 	mov	x0, x21
 30013e8:	2a0203e1 	mov	w1, w2
 30013ec:	97ffff5d 	bl	3001160 <wait_done_timeout>
	wait_done_timeout((UINT32 *)CR_EMMC_STATUS, 0x200, 0x0);
 30013f0:	52800002 	mov	w2, #0x0                   	// #0
 30013f4:	52804001 	mov	w1, #0x200                 	// #512
 30013f8:	d2840900 	mov	x0, #0x2048                	// #8264
 30013fc:	f2b30020 	movk	x0, #0x9801, lsl #16
 3001400:	97ffff58 	bl	3001160 <wait_done_timeout>
	CP15ISB;
 3001404:	d5033fdf 	isb
	sync();
 3001408:	97fffbc1 	bl	300030c <sync>

	return 0;

}
 300140c:	52800000 	mov	w0, #0x0                   	// #0
 3001410:	f9401bfe 	ldr	x30, [sp,#48]
 3001414:	a9415bf5 	ldp	x21, x22, [sp,#16]
 3001418:	a94263f7 	ldp	x23, x24, [sp,#32]
 300141c:	a8c453f3 	ldp	x19, x20, [sp],#64
 3001420:	d65f03c0 	ret

0000000003001424 <emmc_send_cmd_get_rsp>:

//rsp_con -  0: no rsp, 1: short rsp, 3: long rsp
int emmc_send_cmd_get_rsp(UINT32 cmd_idx, UINT32 sd_arg, UINT32 rsp_con, UINT32 crc){
 3001424:	a9bb53f3 	stp	x19, x20, [sp,#-80]!
 3001428:	2a0203f3 	mov	w19, w2
 300142c:	2a0303f4 	mov	w20, w3
 3001430:	a9015bf5 	stp	x21, x22, [sp,#16]

	int ret_error = 0;

	cr_writel(0x0000ffff, CR_EMMC_RINTSTS); 		// clear all interrupt status
 3001434:	d2840895 	mov	x21, #0x2044                	// #8260
 3001438:	f2b30035 	movk	x21, #0x9801, lsl #16
	return 0;

}

//rsp_con -  0: no rsp, 1: short rsp, 3: long rsp
int emmc_send_cmd_get_rsp(UINT32 cmd_idx, UINT32 sd_arg, UINT32 rsp_con, UINT32 crc){
 300143c:	a90263f7 	stp	x23, x24, [sp,#32]
 3001440:	f9001bfe 	str	x30, [sp,#48]

	int ret_error = 0;

	cr_writel(0x0000ffff, CR_EMMC_RINTSTS); 		// clear all interrupt status
 3001444:	529ffff6 	mov	w22, #0xffff                	// #65535
	return 0;

}

//rsp_con -  0: no rsp, 1: short rsp, 3: long rsp
int emmc_send_cmd_get_rsp(UINT32 cmd_idx, UINT32 sd_arg, UINT32 rsp_con, UINT32 crc){
 3001448:	2a0003f7 	mov	w23, w0
 300144c:	2a0103f8 	mov	w24, w1

	int ret_error = 0;

	cr_writel(0x0000ffff, CR_EMMC_RINTSTS); 		// clear all interrupt status
 3001450:	b90002b6 	str	w22, [x21]
	CP15ISB;
 3001454:	d5033fdf 	isb
	sync();
 3001458:	97fffbad 	bl	300030c <sync>
	cr_writel(0x0000ffff, CR_EMMC_INTMASK); 		// enable all interrupts
 300145c:	d2840480 	mov	x0, #0x2024                	// #8228
 3001460:	f2b30020 	movk	x0, #0x9801, lsl #16
 3001464:	b9000016 	str	w22, [x0]
	CP15ISB;
 3001468:	d5033fdf 	isb
	sync();
 300146c:	97fffba8 	bl	300030c <sync>
	cr_writel(sd_arg, CR_EMMC_CMDARG);	// cmd argument
 3001470:	d2840500 	mov	x0, #0x2028                	// #8232
 3001474:	f2b30020 	movk	x0, #0x9801, lsl #16
 3001478:	b9000018 	str	w24, [x0]
	CP15ISB;
 300147c:	d5033fdf 	isb
	sync();
 3001480:	97fffba3 	bl	300030c <sync>
 3001484:	2a1422f4 	orr	w20, w23, w20, lsl #8
#ifdef CR_DEBUG
	prints("Emmc cmd = 0x");
	print_hex(cmd_idx);
	prints("\n");
#endif
	cr_writel(0xa0000000|cmd_idx|(rsp_con<<6)|(crc<<8), CR_EMMC_CMD);	// cmd Register
 3001488:	d2840581 	mov	x1, #0x202c                	// #8236
 300148c:	f2b30021 	movk	x1, #0x9801, lsl #16
 3001490:	52b40002 	mov	w2, #0xa0000000            	// #-1610612736
 3001494:	2a131853 	orr	w19, w2, w19, lsl #6
 3001498:	2a130293 	orr	w19, w20, w19
 300149c:	b9000033 	str	w19, [x1]
	CP15ISB;
 30014a0:	d5033fdf 	isb
	sync();
 30014a4:	97fffb9a 	bl	300030c <sync>
	wait_done_timeout((UINT32 *)CR_EMMC_RINTSTS, 0x4, 0x4);
 30014a8:	52800082 	mov	w2, #0x4                   	// #4
 30014ac:	aa1503e0 	mov	x0, x21
 30014b0:	2a0203e1 	mov	w1, w2
 30014b4:	97ffff2b 	bl	3001160 <wait_done_timeout>
	wait_done_timeout((UINT32 *)CR_EMMC_STATUS, 0x200, 0x0);
 30014b8:	52800002 	mov	w2, #0x0                   	// #0
 30014bc:	52804001 	mov	w1, #0x200                 	// #512
 30014c0:	d2840900 	mov	x0, #0x2048                	// #8264
 30014c4:	f2b30020 	movk	x0, #0x9801, lsl #16
 30014c8:	97ffff26 	bl	3001160 <wait_done_timeout>
	CP15ISB;
 30014cc:	d5033fdf 	isb
	sync();
 30014d0:	97fffb8f 	bl	300030c <sync>
	prints("Emmc Resp3 = 0x");
	print_hex(cr_readl(CR_EMMC_RESP3));
	prints("\n");
#endif

	if ((ret_error = check_error())==0)
 30014d4:	97ffff57 	bl	3001230 <check_error>
 30014d8:	34000100 	cbz	w0, 30014f8 <emmc_send_cmd_get_rsp+0xd4>
	return 0;
	sync();
}

void reset_ip(){
	cr_writel(0x00000081, CR_EMMC_BMOD); //reset
 30014dc:	d2841001 	mov	x1, #0x2080                	// #8320
 30014e0:	f2b30021 	movk	x1, #0x9801, lsl #16
 30014e4:	b9004fe0 	str	w0, [sp,#76]
 30014e8:	52801022 	mov	w2, #0x81                  	// #129
 30014ec:	b9000022 	str	w2, [x1]
	sync();
 30014f0:	97fffb87 	bl	300030c <sync>
 30014f4:	b9404fe0 	ldr	w0, [sp,#76]
	else
	{
		reset_ip();
		return ret_error;
	}
}
 30014f8:	a9415bf5 	ldp	x21, x22, [sp,#16]
 30014fc:	a94263f7 	ldp	x23, x24, [sp,#32]
 3001500:	f9401bfe 	ldr	x30, [sp,#48]
 3001504:	a8c553f3 	ldp	x19, x20, [sp],#80
 3001508:	d65f03c0 	ret

000000000300150c <IsAddressSRAM>:



UINT32 IsAddressSRAM(UINT32 addr)
{
    if ((addr<SRAM_BASE_PHY) || (addr > SRAM_LAST_ADDR))
 300150c:	2a0003e2 	mov	w2, w0
 3001510:	f03e7fe1 	adrp	x1, 80000000 <_sram>
 3001514:	91000021 	add	x1, x1, #0x0
 3001518:	eb01005f 	cmp	x2, x1
        //ddr address
        return 0;
 300151c:	52800000 	mov	w0, #0x0                   	// #0



UINT32 IsAddressSRAM(UINT32 addr)
{
    if ((addr<SRAM_BASE_PHY) || (addr > SRAM_LAST_ADDR))
 3001520:	540000a3 	b.cc	3001534 <IsAddressSRAM+0x28>
 3001524:	91407c21 	add	x1, x1, #0x1f, lsl #12
 3001528:	913ffc21 	add	x1, x1, #0xfff
 300152c:	eb01005f 	cmp	x2, x1
 3001530:	1a9f87e0 	cset	w0, ls
        //ddr address
        return 0;
    else
        //secureRam addr
        return 1;
}
 3001534:	d65f03c0 	ret

0000000003001538 <make_ip_des>:

#pragma GCC push_options
#pragma GCC optimize ("O2")

void make_ip_des(UINT32 dma_addr, UINT32 dma_length){
 3001538:	a9bd53f3 	stp	x19, x20, [sp,#-48]!
 300153c:	2a0003f4 	mov	w20, w0
 3001540:	a9015bf5 	stp	x21, x22, [sp,#16]

	UINT32* des_base = rw_descriptor;
 3001544:	b0000056 	adrp	x22, 300a000 <__FUNCTION__.3108+0x3d8>
 3001548:	f945d6d3 	ldr	x19, [x22,#2984]

	UINT32  tmp_val;


	//blk_cnt must be the multiple of 512(0x200)
	blk_cnt  = dma_length>>9;
 300154c:	53097c35 	lsr	w21, w1, #9
}

#pragma GCC push_options
#pragma GCC optimize ("O2")

void make_ip_des(UINT32 dma_addr, UINT32 dma_length){
 3001550:	f90013fe 	str	x30, [sp,#32]
	//blk_cnt must be the multiple of 512(0x200)
	blk_cnt  = dma_length>>9;
  	remain_blk_cnt  = blk_cnt;

#ifdef ENABLE_MMU
	sys_dcache_flush_MVA(rw_descriptor, rw_descriptor+4*MAX_DESCRIPTOR_NUM);
 3001554:	11020261 	add	w1, w19, #0x80
 3001558:	2a1303e0 	mov	w0, w19
 300155c:	97fffabc 	bl	300004c <sys_dcache_flush_MVA>
#endif

	while(remain_blk_cnt){
 3001560:	34000375 	cbz	w21, 30015cc <make_ip_des+0x94>
 3001564:	52800342 	mov	w2, #0x1a                  	// #26
 3001568:	72b00002 	movk	w2, #0x8000, lsl #16

		/* setting des0; transfer parameter  */
		tmp_val = 0x80000000 | 0x2 | 0x10;

		if(remain_blk_cnt == blk_cnt)
		        tmp_val |= 0x8;
 300156c:	52800245 	mov	w5, #0x12                  	// #18
 3001570:	72b00005 	movk	w5, #0x8000, lsl #16

#ifdef ENABLE_MMU
	sys_dcache_flush_MVA(rw_descriptor, rw_descriptor+4*MAX_DESCRIPTOR_NUM);
#endif

	while(remain_blk_cnt){
 3001574:	2a1503e0 	mov	w0, w21

		/* setting des0; transfer parameter  */
		tmp_val = 0x80000000 | 0x2 | 0x10;

		if(remain_blk_cnt == blk_cnt)
		        tmp_val |= 0x8;
 3001578:	2a0203e4 	mov	w4, w2
 300157c:	1400000c 	b	30015ac <make_ip_des+0x74>

		if(remain_blk_cnt <= EMMC_MAX_SCRIPT_BLK)
		        tmp_val |= 0x4;

		des_base[0] = tmp_val;
 3001580:	b9000263 	str	w3, [x19]
 3001584:	52800000 	mov	w0, #0x0                   	// #0
		        blk_cnt2 = remain_blk_cnt;
		}
		des_base[1] = (blk_cnt2<<9);

		/* setting des2; Physical address to DMA to/from */
		des_base[2] = (dma_addr);
 3001588:	b9000a74 	str	w20, [x19,#8]

		/* setting des3; next descrpter entry */
		des_base[3] = ((unsigned int)(des_base+4));
 300158c:	91004273 	add	x19, x19, #0x10
		if(remain_blk_cnt > EMMC_MAX_SCRIPT_BLK){
		        blk_cnt2 = EMMC_MAX_SCRIPT_BLK;
		}else{
		        blk_cnt2 = remain_blk_cnt;
		}
		des_base[1] = (blk_cnt2<<9);
 3001590:	b81f4261 	stur	w1, [x19,#-12]

		/* setting des2; Physical address to DMA to/from */
		des_base[2] = (dma_addr);

		/* setting des3; next descrpter entry */
		des_base[3] = ((unsigned int)(des_base+4));
 3001594:	b81fc273 	stur	w19, [x19,#-4]

		CP15ISB;
 3001598:	d5033fdf 	isb

		/* setting des0; transfer parameter  */
		tmp_val = 0x80000000 | 0x2 | 0x10;

		if(remain_blk_cnt == blk_cnt)
		        tmp_val |= 0x8;
 300159c:	6b0002bf 	cmp	w21, w0
		/* setting des3; next descrpter entry */
		des_base[3] = ((unsigned int)(des_base+4));

		CP15ISB;

		dma_addr = dma_addr+(blk_cnt2<<9);
 30015a0:	0b010294 	add	w20, w20, w1

		/* setting des0; transfer parameter  */
		tmp_val = 0x80000000 | 0x2 | 0x10;

		if(remain_blk_cnt == blk_cnt)
		        tmp_val |= 0x8;
 30015a4:	1a8410a2 	csel	w2, w5, w4, ne

#ifdef ENABLE_MMU
	sys_dcache_flush_MVA(rw_descriptor, rw_descriptor+4*MAX_DESCRIPTOR_NUM);
#endif

	while(remain_blk_cnt){
 30015a8:	34000120 	cbz	w0, 30015cc <make_ip_des+0x94>
		tmp_val = 0x80000000 | 0x2 | 0x10;

		if(remain_blk_cnt == blk_cnt)
		        tmp_val |= 0x8;

		if(remain_blk_cnt <= EMMC_MAX_SCRIPT_BLK)
 30015ac:	7100201f 	cmp	w0, #0x8
 30015b0:	53175801 	lsl	w1, w0, #9
		        tmp_val |= 0x4;
 30015b4:	321e0043 	orr	w3, w2, #0x4
		tmp_val = 0x80000000 | 0x2 | 0x10;

		if(remain_blk_cnt == blk_cnt)
		        tmp_val |= 0x8;

		if(remain_blk_cnt <= EMMC_MAX_SCRIPT_BLK)
 30015b8:	54fffe49 	b.ls	3001580 <make_ip_des+0x48>
		        tmp_val |= 0x4;

		des_base[0] = tmp_val;
 30015bc:	b9000262 	str	w2, [x19]
 30015c0:	51002000 	sub	w0, w0, #0x8
 30015c4:	52820001 	mov	w1, #0x1000                	// #4096
 30015c8:	17fffff0 	b	3001588 <make_ip_des+0x50>
	{
		faultDetect();
	}

#ifdef ENABLE_MMU
	sys_dcache_flush_MVA(rw_descriptor, rw_descriptor+4*MAX_DESCRIPTOR_NUM);
 30015cc:	f945d6c0 	ldr	x0, [x22,#2984]
#endif
}
 30015d0:	f94013fe 	ldr	x30, [sp,#32]
 30015d4:	a9415bf5 	ldp	x21, x22, [sp,#16]
 30015d8:	a8c353f3 	ldp	x19, x20, [sp],#48
	{
		faultDetect();
	}

#ifdef ENABLE_MMU
	sys_dcache_flush_MVA(rw_descriptor, rw_descriptor+4*MAX_DESCRIPTOR_NUM);
 30015dc:	11020001 	add	w1, w0, #0x80
 30015e0:	17fffa9b 	b	300004c <sys_dcache_flush_MVA>

00000000030015e4 <emmc_read_write_ip>:
#endif
}

int emmc_read_write_ip(UINT32 cmd_idx, UINT32 blk_addr, UINT32 dma_addr, UINT32 dma_length){
 30015e4:	a9bd53f3 	stp	x19, x20, [sp,#-48]!
 30015e8:	2a0203e2 	mov	w2, w2



UINT32 IsAddressSRAM(UINT32 addr)
{
    if ((addr<SRAM_BASE_PHY) || (addr > SRAM_LAST_ADDR))
 30015ec:	f03e7fe4 	adrp	x4, 80000000 <_sram>
 30015f0:	91000084 	add	x4, x4, #0x0
#ifdef ENABLE_MMU
	sys_dcache_flush_MVA(rw_descriptor, rw_descriptor+4*MAX_DESCRIPTOR_NUM);
#endif
}

int emmc_read_write_ip(UINT32 cmd_idx, UINT32 blk_addr, UINT32 dma_addr, UINT32 dma_length){
 30015f4:	a9015bf5 	stp	x21, x22, [sp,#16]
 30015f8:	a9027bf7 	stp	x23, x30, [sp,#32]



UINT32 IsAddressSRAM(UINT32 addr)
{
    if ((addr<SRAM_BASE_PHY) || (addr > SRAM_LAST_ADDR))
 30015fc:	eb04005f 	cmp	x2, x4
#ifdef ENABLE_MMU
	sys_dcache_flush_MVA(rw_descriptor, rw_descriptor+4*MAX_DESCRIPTOR_NUM);
#endif
}

int emmc_read_write_ip(UINT32 cmd_idx, UINT32 blk_addr, UINT32 dma_addr, UINT32 dma_length){
 3001600:	aa0203f5 	mov	x21, x2
 3001604:	2a0003f3 	mov	w19, w0
 3001608:	2a0103f6 	mov	w22, w1
 300160c:	2a0303f7 	mov	w23, w3



UINT32 IsAddressSRAM(UINT32 addr)
{
    if ((addr<SRAM_BASE_PHY) || (addr > SRAM_LAST_ADDR))
 3001610:	540000a3 	b.cc	3001624 <emmc_read_write_ip+0x40>
 3001614:	91407c84 	add	x4, x4, #0x1f, lsl #12
 3001618:	913ffc84 	add	x4, x4, #0xfff
 300161c:	eb04005f 	cmp	x2, x4
 3001620:	54000e69 	b.ls	30017ec <emmc_read_write_ip+0x208>
		cr_writel(1, CR_EMMC_SWC_SEL3);
		cr_writel(0x41, CR_EMMC_CP);
		rw_descriptor = sbuf_descriptor;
	}
	else{
		cr_writel(1, CR_EMMC_SWC_SEL0);
 3001624:	d2849a85 	mov	x5, #0x24d4                	// #9428
 3001628:	f2b30025 	movk	x5, #0x9801, lsl #16
		cr_writel(0, CR_EMMC_SWC_SEL1);
 300162c:	d2849b04 	mov	x4, #0x24d8                	// #9432
 3001630:	f2b30024 	movk	x4, #0x9801, lsl #16
		cr_writel(1, CR_EMMC_SWC_SEL2);
 3001634:	d2849b83 	mov	x3, #0x24dc                	// #9436
 3001638:	f2b30023 	movk	x3, #0x9801, lsl #16
		cr_writel(1, CR_EMMC_SWC_SEL3);
		cr_writel(0x41, CR_EMMC_CP);
		rw_descriptor = sbuf_descriptor;
	}
	else{
		cr_writel(1, CR_EMMC_SWC_SEL0);
 300163c:	52800020 	mov	w0, #0x1                   	// #1
		cr_writel(0, CR_EMMC_SWC_SEL1);
		cr_writel(1, CR_EMMC_SWC_SEL2);
		cr_writel(0, CR_EMMC_SWC_SEL3);
 3001640:	d2849c02 	mov	x2, #0x24e0                	// #9440
 3001644:	f2b30022 	movk	x2, #0x9801, lsl #16
		cr_writel(1, CR_EMMC_SWC_SEL3);
		cr_writel(0x41, CR_EMMC_CP);
		rw_descriptor = sbuf_descriptor;
	}
	else{
		cr_writel(1, CR_EMMC_SWC_SEL0);
 3001648:	b90000a0 	str	w0, [x5]
		cr_writel(0, CR_EMMC_SWC_SEL1);
		cr_writel(1, CR_EMMC_SWC_SEL2);
		cr_writel(0, CR_EMMC_SWC_SEL3);
		cr_writel(0, CR_EMMC_CP);
 300164c:	d2848381 	mov	x1, #0x241c                	// #9244
 3001650:	f2b30021 	movk	x1, #0x9801, lsl #16
		cr_writel(0x41, CR_EMMC_CP);
		rw_descriptor = sbuf_descriptor;
	}
	else{
		cr_writel(1, CR_EMMC_SWC_SEL0);
		cr_writel(0, CR_EMMC_SWC_SEL1);
 3001654:	b900009f 	str	wzr, [x4]
		cr_writel(1, CR_EMMC_SWC_SEL2);
		cr_writel(0, CR_EMMC_SWC_SEL3);
		cr_writel(0, CR_EMMC_CP);
		rw_descriptor = ddr_descriptor;
 3001658:	b0000054 	adrp	x20, 300a000 <__FUNCTION__.3108+0x3d8>
		rw_descriptor = sbuf_descriptor;
	}
	else{
		cr_writel(1, CR_EMMC_SWC_SEL0);
		cr_writel(0, CR_EMMC_SWC_SEL1);
		cr_writel(1, CR_EMMC_SWC_SEL2);
 300165c:	b9000060 	str	w0, [x3]
		cr_writel(0, CR_EMMC_SWC_SEL3);
		cr_writel(0, CR_EMMC_CP);
		rw_descriptor = ddr_descriptor;
 3001660:	d2a04000 	mov	x0, #0x2000000             	// #33554432
	}
	else{
		cr_writel(1, CR_EMMC_SWC_SEL0);
		cr_writel(0, CR_EMMC_SWC_SEL1);
		cr_writel(1, CR_EMMC_SWC_SEL2);
		cr_writel(0, CR_EMMC_SWC_SEL3);
 3001664:	b900005f 	str	wzr, [x2]
		cr_writel(0, CR_EMMC_CP);
 3001668:	b900003f 	str	wzr, [x1]
		rw_descriptor = ddr_descriptor;
 300166c:	f905d680 	str	x0, [x20,#2984]
	}


	CP15ISB;
 3001670:	d5033fdf 	isb
	sync();
 3001674:	97fffb26 	bl	300030c <sync>

	make_ip_des(dma_addr, dma_length);
 3001678:	2a1703e1 	mov	w1, w23
 300167c:	2a1503e0 	mov	w0, w21
 3001680:	97ffffae 	bl	3001538 <make_ip_des>

	cr_writel(dma_length, CR_EMMC_BYTCNT);
 3001684:	d2840400 	mov	x0, #0x2020                	// #8224
 3001688:	f2b30020 	movk	x0, #0x9801, lsl #16
	cr_writel(rw_descriptor, CR_EMMC_DBADDR);
 300168c:	d2841104 	mov	x4, #0x2088                	// #8328
 3001690:	f2b30024 	movk	x4, #0x9801, lsl #16
	cr_writel(0x0000ffff, CR_EMMC_RINTSTS);
 3001694:	d2840883 	mov	x3, #0x2044                	// #8260
 3001698:	f2b30023 	movk	x3, #0x9801, lsl #16
	CP15ISB;
	sync();

	make_ip_des(dma_addr, dma_length);

	cr_writel(dma_length, CR_EMMC_BYTCNT);
 300169c:	b9000017 	str	w23, [x0]
	cr_writel(rw_descriptor, CR_EMMC_DBADDR);
	cr_writel(0x0000ffff, CR_EMMC_RINTSTS);
	cr_writel(0x0000ffff, CR_EMMC_INTMASK);
 30016a0:	d2840482 	mov	x2, #0x2024                	// #8228
 30016a4:	f2b30022 	movk	x2, #0x9801, lsl #16
	sync();

	make_ip_des(dma_addr, dma_length);

	cr_writel(dma_length, CR_EMMC_BYTCNT);
	cr_writel(rw_descriptor, CR_EMMC_DBADDR);
 30016a8:	f945d685 	ldr	x5, [x20,#2984]
	cr_writel(0x0000ffff, CR_EMMC_RINTSTS);
	cr_writel(0x0000ffff, CR_EMMC_INTMASK);
	cr_writel(blk_addr,CR_EMMC_CMDARG);
 30016ac:	d2840501 	mov	x1, #0x2028                	// #8232
 30016b0:	f2b30021 	movk	x1, #0x9801, lsl #16
	sync();

	make_ip_des(dma_addr, dma_length);

	cr_writel(dma_length, CR_EMMC_BYTCNT);
	cr_writel(rw_descriptor, CR_EMMC_DBADDR);
 30016b4:	b9000085 	str	w5, [x4]
	cr_writel(0x0000ffff, CR_EMMC_RINTSTS);
 30016b8:	529fffe0 	mov	w0, #0xffff                	// #65535
 30016bc:	b9000060 	str	w0, [x3]
	cr_writel(0x0000ffff, CR_EMMC_INTMASK);
 30016c0:	b9000040 	str	w0, [x2]
	cr_writel(blk_addr,CR_EMMC_CMDARG);
 30016c4:	b9000036 	str	w22, [x1]
	CP15ISB;
 30016c8:	d5033fdf 	isb
	sync();
 30016cc:	97fffb10 	bl	300030c <sync>
	prints("Emmc cmd = 0x");
	print_hex(cmd_idx);
	prints("\n");
#endif

	if((cmd_idx==MMC_READ_SINGLE_BLOCK) || (cmd_idx==MMC_SEND_EXT_CSD)){
 30016d0:	7100227f 	cmp	w19, #0x8
 30016d4:	1a9f17f4 	cset	w20, eq
 30016d8:	350001b4 	cbnz	w20, 300170c <emmc_read_write_ip+0x128>
 30016dc:	7100467f 	cmp	w19, #0x11
 30016e0:	54000160 	b.eq	300170c <emmc_read_write_ip+0x128>
		cr_writel(0xa0000340|cmd_idx,CR_EMMC_CMD);
	}
	else if(cmd_idx==MMC_READ_MULTIPLE_BLOCK){
 30016e4:	71004a7f 	cmp	w19, #0x12
 30016e8:	54000d00 	b.eq	3001888 <emmc_read_write_ip+0x2a4>
		cr_writel(0xa0001340|cmd_idx,CR_EMMC_CMD);
	}
	else if(cmd_idx==MMC_WRITE_BLOCK){
 30016ec:	7100627f 	cmp	w19, #0x18
 30016f0:	54000e40 	b.eq	30018b8 <emmc_read_write_ip+0x2d4>
		cr_writel(0xa0000740|cmd_idx,CR_EMMC_CMD);
	}
	else if(cmd_idx==MMC_WRITE_MULTIPLE_BLOCK){
 30016f4:	7100667f 	cmp	w19, #0x19
 30016f8:	54000d40 	b.eq	30018a0 <emmc_read_write_ip+0x2bc>
		cr_writel(0xa0001740|cmd_idx,CR_EMMC_CMD);
	}
	else{
		prints("Illegal command \n");
 30016fc:	90000040 	adrp	x0, 3009000 <el3_vectors>
 3001700:	91392000 	add	x0, x0, #0xe48
 3001704:	94001273 	bl	30060d0 <prints>
 3001708:	14000007 	b	3001724 <emmc_read_write_ip+0x140>
	print_hex(cmd_idx);
	prints("\n");
#endif

	if((cmd_idx==MMC_READ_SINGLE_BLOCK) || (cmd_idx==MMC_SEND_EXT_CSD)){
		cr_writel(0xa0000340|cmd_idx,CR_EMMC_CMD);
 300170c:	d2840581 	mov	x1, #0x202c                	// #8236
 3001710:	f2b30021 	movk	x1, #0x9801, lsl #16
 3001714:	52806800 	mov	w0, #0x340                 	// #832
 3001718:	72b40000 	movk	w0, #0xa000, lsl #16
 300171c:	2a000260 	orr	w0, w19, w0
 3001720:	b9000020 	str	w0, [x1]
		cr_writel(0xa0001740|cmd_idx,CR_EMMC_CMD);
	}
	else{
		prints("Illegal command \n");
	}
	CP15ISB;
 3001724:	d5033fdf 	isb
	sync();
 3001728:	97fffaf9 	bl	300030c <sync>

	wait_done_timeout((UINT32 *)CR_EMMC_RINTSTS, 0x4, 0x4); //command done
 300172c:	52800082 	mov	w2, #0x4                   	// #4
 3001730:	d2840880 	mov	x0, #0x2044                	// #8260
 3001734:	f2b30020 	movk	x0, #0x9801, lsl #16
 3001738:	2a0203e1 	mov	w1, w2
 300173c:	97fffe89 	bl	3001160 <wait_done_timeout>
	wait_done_timeout((UINT32 *)CR_EMMC_RINTSTS, 0x8, 0x8); //data transfer over
 3001740:	52800102 	mov	w2, #0x8                   	// #8
 3001744:	d2840880 	mov	x0, #0x2044                	// #8260
 3001748:	f2b30020 	movk	x0, #0x9801, lsl #16
 300174c:	2a0203e1 	mov	w1, w2
 3001750:	97fffe84 	bl	3001160 <wait_done_timeout>

	CP15ISB;
 3001754:	d5033fdf 	isb
	sync();
 3001758:	97fffaed 	bl	300030c <sync>


	if ((cmd_idx==MMC_READ_MULTIPLE_BLOCK) ||(cmd_idx==MMC_WRITE_MULTIPLE_BLOCK) ){
 300175c:	7100667f 	cmp	w19, #0x19
 3001760:	54000880 	b.eq	3001870 <emmc_read_write_ip+0x28c>
 3001764:	71004a7f 	cmp	w19, #0x12
 3001768:	54000840 	b.eq	3001870 <emmc_read_write_ip+0x28c>
		wait_done_timeout((UINT32 *)CR_EMMC_RINTSTS, 0x4000, 0x4000); //auto command done (stop command done)
	}
	wait_done_timeout((UINT32 *)CR_EMMC_STATUS, 0x200, 0x0);
 300176c:	52800002 	mov	w2, #0x0                   	// #0
 3001770:	52804001 	mov	w1, #0x200                 	// #512
 3001774:	d2840900 	mov	x0, #0x2048                	// #8264
 3001778:	f2b30020 	movk	x0, #0x9801, lsl #16
 300177c:	97fffe79 	bl	3001160 <wait_done_timeout>

	CP15ISB;
 3001780:	d5033fdf 	isb
	sync();
 3001784:	97fffae2 	bl	300030c <sync>

	//read case : polling dma_done for safety
	if (cmd_idx==MMC_READ_SINGLE_BLOCK || cmd_idx==MMC_READ_MULTIPLE_BLOCK || cmd_idx==MMC_SEND_EXT_CSD) {
 3001788:	51004673 	sub	w19, w19, #0x11
 300178c:	7100067f 	cmp	w19, #0x1
 3001790:	540005a9 	b.ls	3001844 <emmc_read_write_ip+0x260>
 3001794:	35000594 	cbnz	w20, 3001844 <emmc_read_write_ip+0x260>
		CP15ISB;
		sync();
	}

	//always switch eMMC back to NWC
	cr_writel(1, CR_EMMC_SWC_SEL0);
 3001798:	d2849a85 	mov	x5, #0x24d4                	// #9428
 300179c:	f2b30025 	movk	x5, #0x9801, lsl #16
	cr_writel(0, CR_EMMC_SWC_SEL1);
 30017a0:	d2849b04 	mov	x4, #0x24d8                	// #9432
 30017a4:	f2b30024 	movk	x4, #0x9801, lsl #16
	cr_writel(1, CR_EMMC_SWC_SEL2);
 30017a8:	d2849b83 	mov	x3, #0x24dc                	// #9436
 30017ac:	f2b30023 	movk	x3, #0x9801, lsl #16
		CP15ISB;
		sync();
	}

	//always switch eMMC back to NWC
	cr_writel(1, CR_EMMC_SWC_SEL0);
 30017b0:	52800020 	mov	w0, #0x1                   	// #1
	cr_writel(0, CR_EMMC_SWC_SEL1);
	cr_writel(1, CR_EMMC_SWC_SEL2);
	cr_writel(0, CR_EMMC_SWC_SEL3);
 30017b4:	d2849c02 	mov	x2, #0x24e0                	// #9440
 30017b8:	f2b30022 	movk	x2, #0x9801, lsl #16
		CP15ISB;
		sync();
	}

	//always switch eMMC back to NWC
	cr_writel(1, CR_EMMC_SWC_SEL0);
 30017bc:	b90000a0 	str	w0, [x5]
	cr_writel(0, CR_EMMC_SWC_SEL1);
	cr_writel(1, CR_EMMC_SWC_SEL2);
	cr_writel(0, CR_EMMC_SWC_SEL3);
	cr_writel(0, CR_EMMC_CP);
 30017c0:	d2848381 	mov	x1, #0x241c                	// #9244
 30017c4:	f2b30021 	movk	x1, #0x9801, lsl #16
		sync();
	}

	//always switch eMMC back to NWC
	cr_writel(1, CR_EMMC_SWC_SEL0);
	cr_writel(0, CR_EMMC_SWC_SEL1);
 30017c8:	b900009f 	str	wzr, [x4]
	cr_writel(1, CR_EMMC_SWC_SEL2);
 30017cc:	b9000060 	str	w0, [x3]
	cr_writel(0, CR_EMMC_SWC_SEL3);
 30017d0:	b900005f 	str	wzr, [x2]
	cr_writel(0, CR_EMMC_CP);
 30017d4:	b900003f 	str	wzr, [x1]

	if ((ret_error = check_error())!=0){
 30017d8:	97fffe96 	bl	3001230 <check_error>
			sync();
		}
#endif
		return 0;
	}
}
 30017dc:	a9415bf5 	ldp	x21, x22, [sp,#16]
 30017e0:	a9427bf7 	ldp	x23, x30, [sp,#32]
 30017e4:	a8c353f3 	ldp	x19, x20, [sp],#48
 30017e8:	d65f03c0 	ret
int emmc_read_write_ip(UINT32 cmd_idx, UINT32 blk_addr, UINT32 dma_addr, UINT32 dma_length){
	UINT32 ret_error = 0;
	UINT32 reg = 0;

	if (IsAddressSRAM(dma_addr)){
		cr_writel(0, CR_EMMC_SWC_SEL0);
 30017ec:	d2849a85 	mov	x5, #0x24d4                	// #9428
 30017f0:	f2b30025 	movk	x5, #0x9801, lsl #16
		cr_writel(1, CR_EMMC_SWC_SEL1);
 30017f4:	d2849b00 	mov	x0, #0x24d8                	// #9432
 30017f8:	f2b30020 	movk	x0, #0x9801, lsl #16
		cr_writel(0, CR_EMMC_SWC_SEL2);
 30017fc:	d2849b83 	mov	x3, #0x24dc                	// #9436
 3001800:	f2b30023 	movk	x3, #0x9801, lsl #16
int emmc_read_write_ip(UINT32 cmd_idx, UINT32 blk_addr, UINT32 dma_addr, UINT32 dma_length){
	UINT32 ret_error = 0;
	UINT32 reg = 0;

	if (IsAddressSRAM(dma_addr)){
		cr_writel(0, CR_EMMC_SWC_SEL0);
 3001804:	b90000bf 	str	wzr, [x5]
		cr_writel(1, CR_EMMC_SWC_SEL1);
		cr_writel(0, CR_EMMC_SWC_SEL2);
		cr_writel(1, CR_EMMC_SWC_SEL3);
 3001808:	d2849c04 	mov	x4, #0x24e0                	// #9440
 300180c:	f2b30024 	movk	x4, #0x9801, lsl #16
	UINT32 ret_error = 0;
	UINT32 reg = 0;

	if (IsAddressSRAM(dma_addr)){
		cr_writel(0, CR_EMMC_SWC_SEL0);
		cr_writel(1, CR_EMMC_SWC_SEL1);
 3001810:	52800021 	mov	w1, #0x1                   	// #1
		cr_writel(0, CR_EMMC_SWC_SEL2);
		cr_writel(1, CR_EMMC_SWC_SEL3);
		cr_writel(0x41, CR_EMMC_CP);
 3001814:	d2848382 	mov	x2, #0x241c                	// #9244
 3001818:	f2b30022 	movk	x2, #0x9801, lsl #16
	UINT32 ret_error = 0;
	UINT32 reg = 0;

	if (IsAddressSRAM(dma_addr)){
		cr_writel(0, CR_EMMC_SWC_SEL0);
		cr_writel(1, CR_EMMC_SWC_SEL1);
 300181c:	b9000001 	str	w1, [x0]
		cr_writel(0, CR_EMMC_SWC_SEL2);
		cr_writel(1, CR_EMMC_SWC_SEL3);
		cr_writel(0x41, CR_EMMC_CP);
		rw_descriptor = sbuf_descriptor;
 3001820:	b0000054 	adrp	x20, 300a000 <__FUNCTION__.3108+0x3d8>
 3001824:	912ea280 	add	x0, x20, #0xba8
	UINT32 reg = 0;

	if (IsAddressSRAM(dma_addr)){
		cr_writel(0, CR_EMMC_SWC_SEL0);
		cr_writel(1, CR_EMMC_SWC_SEL1);
		cr_writel(0, CR_EMMC_SWC_SEL2);
 3001828:	b900007f 	str	wzr, [x3]
		cr_writel(1, CR_EMMC_SWC_SEL3);
		cr_writel(0x41, CR_EMMC_CP);
 300182c:	52800823 	mov	w3, #0x41                  	// #65

	if (IsAddressSRAM(dma_addr)){
		cr_writel(0, CR_EMMC_SWC_SEL0);
		cr_writel(1, CR_EMMC_SWC_SEL1);
		cr_writel(0, CR_EMMC_SWC_SEL2);
		cr_writel(1, CR_EMMC_SWC_SEL3);
 3001830:	b9000081 	str	w1, [x4]
		cr_writel(0x41, CR_EMMC_CP);
		rw_descriptor = sbuf_descriptor;
 3001834:	91002000 	add	x0, x0, #0x8
	if (IsAddressSRAM(dma_addr)){
		cr_writel(0, CR_EMMC_SWC_SEL0);
		cr_writel(1, CR_EMMC_SWC_SEL1);
		cr_writel(0, CR_EMMC_SWC_SEL2);
		cr_writel(1, CR_EMMC_SWC_SEL3);
		cr_writel(0x41, CR_EMMC_CP);
 3001838:	b9000043 	str	w3, [x2]
		rw_descriptor = sbuf_descriptor;
 300183c:	f905d680 	str	x0, [x20,#2984]
 3001840:	17ffff8c 	b	3001670 <emmc_read_write_ip+0x8c>
	CP15ISB;
	sync();

	//read case : polling dma_done for safety
	if (cmd_idx==MMC_READ_SINGLE_BLOCK || cmd_idx==MMC_READ_MULTIPLE_BLOCK || cmd_idx==MMC_SEND_EXT_CSD) {
		wait_done_timeout((UINT32 *)CR_EMMC_ISR, 0x2, 0x2); //dma_done_int
 3001844:	52800042 	mov	w2, #0x2                   	// #2
 3001848:	d2848493 	mov	x19, #0x2424                	// #9252
 300184c:	f2b30033 	movk	x19, #0x9801, lsl #16
 3001850:	aa1303e0 	mov	x0, x19
 3001854:	2a0203e1 	mov	w1, w2
 3001858:	97fffe42 	bl	3001160 <wait_done_timeout>
		cr_writel(0x2, CR_EMMC_ISR);
 300185c:	52800040 	mov	w0, #0x2                   	// #2
 3001860:	b9000260 	str	w0, [x19]
		CP15ISB;
 3001864:	d5033fdf 	isb
		sync();
 3001868:	97fffaa9 	bl	300030c <sync>
 300186c:	17ffffcb 	b	3001798 <emmc_read_write_ip+0x1b4>
	CP15ISB;
	sync();


	if ((cmd_idx==MMC_READ_MULTIPLE_BLOCK) ||(cmd_idx==MMC_WRITE_MULTIPLE_BLOCK) ){
		wait_done_timeout((UINT32 *)CR_EMMC_RINTSTS, 0x4000, 0x4000); //auto command done (stop command done)
 3001870:	52880002 	mov	w2, #0x4000                	// #16384
 3001874:	d2840880 	mov	x0, #0x2044                	// #8260
 3001878:	f2b30020 	movk	x0, #0x9801, lsl #16
 300187c:	2a0203e1 	mov	w1, w2
 3001880:	97fffe38 	bl	3001160 <wait_done_timeout>
 3001884:	17ffffba 	b	300176c <emmc_read_write_ip+0x188>

	if((cmd_idx==MMC_READ_SINGLE_BLOCK) || (cmd_idx==MMC_SEND_EXT_CSD)){
		cr_writel(0xa0000340|cmd_idx,CR_EMMC_CMD);
	}
	else if(cmd_idx==MMC_READ_MULTIPLE_BLOCK){
		cr_writel(0xa0001340|cmd_idx,CR_EMMC_CMD);
 3001888:	d2840580 	mov	x0, #0x202c                	// #8236
 300188c:	f2b30020 	movk	x0, #0x9801, lsl #16
 3001890:	52826a41 	mov	w1, #0x1352                	// #4946
 3001894:	72b40001 	movk	w1, #0xa000, lsl #16
 3001898:	b9000001 	str	w1, [x0]
 300189c:	17ffffa2 	b	3001724 <emmc_read_write_ip+0x140>
	}
	else if(cmd_idx==MMC_WRITE_BLOCK){
		cr_writel(0xa0000740|cmd_idx,CR_EMMC_CMD);
	}
	else if(cmd_idx==MMC_WRITE_MULTIPLE_BLOCK){
		cr_writel(0xa0001740|cmd_idx,CR_EMMC_CMD);
 30018a0:	d2840580 	mov	x0, #0x202c                	// #8236
 30018a4:	f2b30020 	movk	x0, #0x9801, lsl #16
 30018a8:	5282eb21 	mov	w1, #0x1759                	// #5977
 30018ac:	72b40001 	movk	w1, #0xa000, lsl #16
 30018b0:	b9000001 	str	w1, [x0]
 30018b4:	17ffff9c 	b	3001724 <emmc_read_write_ip+0x140>
	}
	else if(cmd_idx==MMC_READ_MULTIPLE_BLOCK){
		cr_writel(0xa0001340|cmd_idx,CR_EMMC_CMD);
	}
	else if(cmd_idx==MMC_WRITE_BLOCK){
		cr_writel(0xa0000740|cmd_idx,CR_EMMC_CMD);
 30018b8:	d2840580 	mov	x0, #0x202c                	// #8236
 30018bc:	f2b30020 	movk	x0, #0x9801, lsl #16
 30018c0:	5280eb01 	mov	w1, #0x758                 	// #1880
 30018c4:	72b40001 	movk	w1, #0xa000, lsl #16
 30018c8:	b9000001 	str	w1, [x0]
 30018cc:	17ffff96 	b	3001724 <emmc_read_write_ip+0x140>

00000000030018d0 <romcr_blk_ops>:
#endif
		return 0;
	}
}

int romcr_blk_ops(UINT32 bWrite, UINT32 blk_addr,UINT32 blk_cnt, UINT8 *dma_addr){
 30018d0:	a9bb53f3 	stp	x19, x20, [sp,#-80]!
 30018d4:	2a0203f3 	mov	w19, w2
 30018d8:	a90263f7 	stp	x23, x24, [sp,#32]
 30018dc:	a9036bf9 	stp	x25, x26, [sp,#48]
 30018e0:	a9015bf5 	stp	x21, x22, [sp,#16]
 30018e4:	a9047bfb 	stp	x27, x30, [sp,#64]
 30018e8:	2a0003f9 	mov	w25, w0
 30018ec:	2a0103f7 	mov	w23, w1
 30018f0:	aa0303f8 	mov	x24, x3
	UINT32  EMMC_MAX_MULTI_BLK = EMMC_MAX_SCRIPT_BLK * MAX_DESCRIPTOR_NUM;
	UINT32  remain_blk_cnt = blk_cnt;
	UINT32  cur_blk_addr = blk_addr;
	UINT32  cur_blk_cnt;

	if (remain_blk_cnt == 0 || dma_addr == 0)
 30018f4:	34000882 	cbz	w2, 3001a04 <romcr_blk_ops+0x134>
 30018f8:	2a0103f5 	mov	w21, w1
 30018fc:	b4000843 	cbz	x3, 3001a04 <romcr_blk_ops+0x134>
				ret_err = emmc_read_write_ip(MMC_WRITE_MULTIPLE_BLOCK, cur_blk_addr,
							(UINT32)dma_addr + ((cur_blk_addr - blk_addr) << 9), cur_blk_cnt << 9);
			else
				ret_err = emmc_read_write_ip(MMC_WRITE_BLOCK, cur_blk_addr,
							(UINT32)dma_addr + ((cur_blk_addr - blk_addr) << 9), cur_blk_cnt << 9);
			prints("/");
 3001900:	9000005b 	adrp	x27, 3009000 <el3_vectors>
 3001904:	9139837b 	add	x27, x27, #0xe60
 3001908:	5280081a 	mov	w26, #0x40                  	// #64
 300190c:	1400000d 	b	3001940 <romcr_blk_ops+0x70>

		CP15ISB;
		sync();

		if (bWrite){
			if (cur_blk_cnt > 1)
 3001910:	54000480 	b.eq	30019a0 <romcr_blk_ops+0xd0>
				ret_err = emmc_read_write_ip(MMC_WRITE_MULTIPLE_BLOCK, cur_blk_addr,
 3001914:	53175a83 	lsl	w3, w20, #9
 3001918:	2a1503e1 	mov	w1, w21
 300191c:	52800320 	mov	w0, #0x19                  	// #25
 3001920:	0b022702 	add	w2, w24, w2, lsl #9
 3001924:	97ffff30 	bl	30015e4 <emmc_read_write_ip>
 3001928:	2a0003f6 	mov	w22, w0
							(UINT32)dma_addr + ((cur_blk_addr - blk_addr) << 9), cur_blk_cnt << 9);
			else
				ret_err = emmc_read_write_ip(MMC_WRITE_BLOCK, cur_blk_addr,
							(UINT32)dma_addr + ((cur_blk_addr - blk_addr) << 9), cur_blk_cnt << 9);
			prints("/");
 300192c:	aa1b03e0 	mov	x0, x27
 3001930:	940011e8 	bl	30060d0 <prints>
							(UINT32)dma_addr + ((cur_blk_addr - blk_addr) << 9), cur_blk_cnt << 9);
			else
				ret_err = emmc_read_write_ip(MMC_READ_SINGLE_BLOCK, cur_blk_addr,
							(UINT32)dma_addr + ((cur_blk_addr - blk_addr) << 9), cur_blk_cnt << 9);
		}
		cur_blk_addr += cur_blk_cnt;
 3001934:	0b1402b5 	add	w21, w21, w20
		if (ret_err ) return ret_err;
 3001938:	35000276 	cbnz	w22, 3001984 <romcr_blk_ops+0xb4>
		CP15ISB;
		sync();
	}

#else
	while (remain_blk_cnt) {
 300193c:	340004f3 	cbz	w19, 30019d8 <romcr_blk_ops+0x108>
 3001940:	7101027f 	cmp	w19, #0x40
 3001944:	1a9a9274 	csel	w20, w19, w26, ls
		if (remain_blk_cnt > EMMC_MAX_MULTI_BLK)
			cur_blk_cnt = EMMC_MAX_MULTI_BLK;
		else
			cur_blk_cnt = remain_blk_cnt;

		remain_blk_cnt -= cur_blk_cnt;
 3001948:	4b140273 	sub	w19, w19, w20

		CP15ISB;
 300194c:	d5033fdf 	isb
		sync();
 3001950:	97fffa6f 	bl	300030c <sync>

		if (bWrite){
			if (cur_blk_cnt > 1)
 3001954:	7100069f 	cmp	w20, #0x1
				ret_err = emmc_read_write_ip(MMC_WRITE_MULTIPLE_BLOCK, cur_blk_addr,
							(UINT32)dma_addr + ((cur_blk_addr - blk_addr) << 9), cur_blk_cnt << 9);
 3001958:	4b1702a2 	sub	w2, w21, w23
		remain_blk_cnt -= cur_blk_cnt;

		CP15ISB;
		sync();

		if (bWrite){
 300195c:	35fffdb9 	cbnz	w25, 3001910 <romcr_blk_ops+0x40>
				ret_err = emmc_read_write_ip(MMC_WRITE_BLOCK, cur_blk_addr,
							(UINT32)dma_addr + ((cur_blk_addr - blk_addr) << 9), cur_blk_cnt << 9);
			prints("/");
		}
		else{
			if (cur_blk_cnt > 1)
 3001960:	540002e0 	b.eq	30019bc <romcr_blk_ops+0xec>
				ret_err = emmc_read_write_ip(MMC_READ_MULTIPLE_BLOCK, cur_blk_addr,
 3001964:	2a1503e1 	mov	w1, w21
 3001968:	53175a83 	lsl	w3, w20, #9
 300196c:	52800240 	mov	w0, #0x12                  	// #18
 3001970:	0b022702 	add	w2, w24, w2, lsl #9
							(UINT32)dma_addr + ((cur_blk_addr - blk_addr) << 9), cur_blk_cnt << 9);
			else
				ret_err = emmc_read_write_ip(MMC_READ_SINGLE_BLOCK, cur_blk_addr,
							(UINT32)dma_addr + ((cur_blk_addr - blk_addr) << 9), cur_blk_cnt << 9);
		}
		cur_blk_addr += cur_blk_cnt;
 3001974:	0b1402b5 	add	w21, w21, w20
							(UINT32)dma_addr + ((cur_blk_addr - blk_addr) << 9), cur_blk_cnt << 9);
			prints("/");
		}
		else{
			if (cur_blk_cnt > 1)
				ret_err = emmc_read_write_ip(MMC_READ_MULTIPLE_BLOCK, cur_blk_addr,
 3001978:	97ffff1b 	bl	30015e4 <emmc_read_write_ip>
 300197c:	2a0003f6 	mov	w22, w0
			else
				ret_err = emmc_read_write_ip(MMC_READ_SINGLE_BLOCK, cur_blk_addr,
							(UINT32)dma_addr + ((cur_blk_addr - blk_addr) << 9), cur_blk_cnt << 9);
		}
		cur_blk_addr += cur_blk_cnt;
		if (ret_err ) return ret_err;
 3001980:	34fffdf6 	cbz	w22, 300193c <romcr_blk_ops+0x6c>

    if (bWrite){
        prints("\n");
    }
    return ret_err;
}
 3001984:	2a1603e0 	mov	w0, w22
 3001988:	a9415bf5 	ldp	x21, x22, [sp,#16]
 300198c:	a94263f7 	ldp	x23, x24, [sp,#32]
 3001990:	a9436bf9 	ldp	x25, x26, [sp,#48]
 3001994:	a9447bfb 	ldp	x27, x30, [sp,#64]
 3001998:	a8c553f3 	ldp	x19, x20, [sp],#80
 300199c:	d65f03c0 	ret
		if (bWrite){
			if (cur_blk_cnt > 1)
				ret_err = emmc_read_write_ip(MMC_WRITE_MULTIPLE_BLOCK, cur_blk_addr,
							(UINT32)dma_addr + ((cur_blk_addr - blk_addr) << 9), cur_blk_cnt << 9);
			else
				ret_err = emmc_read_write_ip(MMC_WRITE_BLOCK, cur_blk_addr,
 30019a0:	52804003 	mov	w3, #0x200                 	// #512
 30019a4:	2a1503e1 	mov	w1, w21
 30019a8:	52800300 	mov	w0, #0x18                  	// #24
 30019ac:	0b022702 	add	w2, w24, w2, lsl #9
 30019b0:	97ffff0d 	bl	30015e4 <emmc_read_write_ip>
 30019b4:	2a0003f6 	mov	w22, w0
 30019b8:	17ffffdd 	b	300192c <romcr_blk_ops+0x5c>
		else{
			if (cur_blk_cnt > 1)
				ret_err = emmc_read_write_ip(MMC_READ_MULTIPLE_BLOCK, cur_blk_addr,
							(UINT32)dma_addr + ((cur_blk_addr - blk_addr) << 9), cur_blk_cnt << 9);
			else
				ret_err = emmc_read_write_ip(MMC_READ_SINGLE_BLOCK, cur_blk_addr,
 30019bc:	52804003 	mov	w3, #0x200                 	// #512
 30019c0:	2a1503e1 	mov	w1, w21
 30019c4:	52800220 	mov	w0, #0x11                  	// #17
 30019c8:	0b022702 	add	w2, w24, w2, lsl #9
 30019cc:	97ffff06 	bl	30015e4 <emmc_read_write_ip>
 30019d0:	2a0003f6 	mov	w22, w0
 30019d4:	17ffffd8 	b	3001934 <romcr_blk_ops+0x64>
	{
		faultDetect();
	}
#endif

    if (bWrite){
 30019d8:	34fffd79 	cbz	w25, 3001984 <romcr_blk_ops+0xb4>
        prints("\n");
 30019dc:	90000040 	adrp	x0, 3009000 <el3_vectors>
 30019e0:	91396000 	add	x0, x0, #0xe58
 30019e4:	940011bb 	bl	30060d0 <prints>
    }
    return ret_err;
}
 30019e8:	2a1603e0 	mov	w0, w22
 30019ec:	a9415bf5 	ldp	x21, x22, [sp,#16]
 30019f0:	a94263f7 	ldp	x23, x24, [sp,#32]
 30019f4:	a9436bf9 	ldp	x25, x26, [sp,#48]
 30019f8:	a9447bfb 	ldp	x27, x30, [sp,#64]
 30019fc:	a8c553f3 	ldp	x19, x20, [sp],#80
 3001a00:	d65f03c0 	ret
	UINT32  remain_blk_cnt = blk_cnt;
	UINT32  cur_blk_addr = blk_addr;
	UINT32  cur_blk_cnt;

	if (remain_blk_cnt == 0 || dma_addr == 0)
		faultDetect();
 3001a04:	94001632 	bl	30072cc <faultDetect>

0000000003001a08 <switch_bus>:
        prints("\n");
    }
    return ret_err;
}

void switch_bus(UINT8 WIDTH){
 3001a08:	a9bf7bf3 	stp	x19, x30, [sp,#-16]!
 3001a0c:	53001c13 	uxtb	w19, w0
	emmc_send_cmd_get_rsp(MMC_SWITCH, 0x03b70000|(WIDTH<<8), 1, 1); //WIDTH - 0: SDR1b, 1: SDR4b, 2: SDR8b, 5: DDR4b, 6: DDR8b
 3001a10:	52800023 	mov	w3, #0x1                   	// #1
 3001a14:	52a076e1 	mov	w1, #0x3b70000             	// #62324736
 3001a18:	2a0303e2 	mov	w2, w3
 3001a1c:	2a132021 	orr	w1, w1, w19, lsl #8
 3001a20:	528000c0 	mov	w0, #0x6                   	// #6
 3001a24:	97fffe80 	bl	3001424 <emmc_send_cmd_get_rsp>
	emmc_send_cmd_get_rsp(MMC_SEND_STATUS, emmc_card.rca, 1, 1);
 3001a28:	b0000041 	adrp	x1, 300a000 <__FUNCTION__.3108+0x3d8>
 3001a2c:	52800023 	mov	w3, #0x1                   	// #1
 3001a30:	2a0303e2 	mov	w2, w3
 3001a34:	528001a0 	mov	w0, #0xd                   	// #13
 3001a38:	b94c3021 	ldr	w1, [x1,#3120]
 3001a3c:	97fffe7a 	bl	3001424 <emmc_send_cmd_get_rsp>
	CP15ISB;
 3001a40:	d5033fdf 	isb
	if ((cr_readl(CR_EMMC_RESP0)&0x80)==0){
 3001a44:	d2840600 	mov	x0, #0x2030                	// #8240
 3001a48:	f2b30020 	movk	x0, #0x9801, lsl #16
 3001a4c:	b9400000 	ldr	w0, [x0]
 3001a50:	37380260 	tbnz	w0, #7, 3001a9c <switch_bus+0x94>
#ifdef CR_DEBUG
		prints("switch bus width to 0x");
		print_hex(WIDTH * 4);
		prints(" bits success\n");
#endif
		switch(WIDTH)
 3001a54:	71001a7f 	cmp	w19, #0x6
			case 6:
				cr_writel(0x00010000, CR_EMMC_CTYPE); // 8bit
				cr_writel(0x00010001, CR_EMMC_UHSREG); //DDR mode, SW 1.8V
				break;
			default:
				cr_writel(0x00010000, CR_EMMC_CTYPE); // 8bit
 3001a58:	d2840302 	mov	x2, #0x2018                	// #8216
 3001a5c:	f2b30022 	movk	x2, #0x9801, lsl #16
#ifdef CR_DEBUG
		prints("switch bus width to 0x");
		print_hex(WIDTH * 4);
		prints(" bits success\n");
#endif
		switch(WIDTH)
 3001a60:	54000129 	b.ls	3001a84 <switch_bus+0x7c>
				cr_writel(0x00010000, CR_EMMC_CTYPE); // 8bit
				cr_writel(0x00010001, CR_EMMC_UHSREG); //DDR mode, SW 1.8V
				break;
			default:
				cr_writel(0x00010000, CR_EMMC_CTYPE); // 8bit
				cr_writel(0x00000001, CR_EMMC_UHSREG); //non-DDR mode, SW 1.8V
 3001a64:	d2840e80 	mov	x0, #0x2074                	// #8308
 3001a68:	f2b30020 	movk	x0, #0x9801, lsl #16
			case 6:
				cr_writel(0x00010000, CR_EMMC_CTYPE); // 8bit
				cr_writel(0x00010001, CR_EMMC_UHSREG); //DDR mode, SW 1.8V
				break;
			default:
				cr_writel(0x00010000, CR_EMMC_CTYPE); // 8bit
 3001a6c:	52a00023 	mov	w3, #0x10000               	// #65536
 3001a70:	b9000043 	str	w3, [x2]
				cr_writel(0x00000001, CR_EMMC_UHSREG); //non-DDR mode, SW 1.8V
 3001a74:	52800021 	mov	w1, #0x1                   	// #1
 3001a78:	b9000001 	str	w1, [x0]
	else{
		prints("switch bus width to 0x");
		print_hex(WIDTH * 4);
		prints(" bits fail\n");
	}
}
 3001a7c:	a8c17bf3 	ldp	x19, x30, [sp],#16
 3001a80:	d65f03c0 	ret
#ifdef CR_DEBUG
		prints("switch bus width to 0x");
		print_hex(WIDTH * 4);
		prints(" bits success\n");
#endif
		switch(WIDTH)
 3001a84:	90000040 	adrp	x0, 3009000 <el3_vectors>
 3001a88:	912c0000 	add	x0, x0, #0xb00
 3001a8c:	38734800 	ldrb	w0, [x0,w19,uxtw]
 3001a90:	10000061 	adr	x1, 3001a9c <switch_bus+0x94>
 3001a94:	8b208820 	add	x0, x1, w0, sxtb #2
 3001a98:	d61f0000 	br	x0
				break;
				break;
		}
	}
	else{
		prints("switch bus width to 0x");
 3001a9c:	90000040 	adrp	x0, 3009000 <el3_vectors>
 3001aa0:	9139a000 	add	x0, x0, #0xe68
 3001aa4:	9400118b 	bl	30060d0 <prints>
		print_hex(WIDTH * 4);
 3001aa8:	531e7660 	lsl	w0, w19, #2
 3001aac:	940011bb 	bl	3006198 <print_hex>
		prints(" bits fail\n");
	}
}
 3001ab0:	a8c17bf3 	ldp	x19, x30, [sp],#16
		}
	}
	else{
		prints("switch bus width to 0x");
		print_hex(WIDTH * 4);
		prints(" bits fail\n");
 3001ab4:	90000040 	adrp	x0, 3009000 <el3_vectors>
 3001ab8:	913a0000 	add	x0, x0, #0xe80
 3001abc:	14001185 	b	30060d0 <prints>
				cr_writel(0x00010000, CR_EMMC_CTYPE); // 8bit
				cr_writel(0x00000001, CR_EMMC_UHSREG); //non-DDR mode, SW 1.8V
				break;
			case 5:
				cr_writel(0x00000001, CR_EMMC_CTYPE); // 4bit
				cr_writel(0x00010001, CR_EMMC_UHSREG); //DDR mode, SW 1.8V
 3001ac0:	d2840e80 	mov	x0, #0x2074                	// #8308
 3001ac4:	f2b30020 	movk	x0, #0x9801, lsl #16
			case 2:
				cr_writel(0x00010000, CR_EMMC_CTYPE); // 8bit
				cr_writel(0x00000001, CR_EMMC_UHSREG); //non-DDR mode, SW 1.8V
				break;
			case 5:
				cr_writel(0x00000001, CR_EMMC_CTYPE); // 4bit
 3001ac8:	52800023 	mov	w3, #0x1                   	// #1
 3001acc:	b9000043 	str	w3, [x2]
				cr_writel(0x00010001, CR_EMMC_UHSREG); //DDR mode, SW 1.8V
 3001ad0:	320083e1 	mov	w1, #0x10001               	// #65537
 3001ad4:	b9000001 	str	w1, [x0]
	else{
		prints("switch bus width to 0x");
		print_hex(WIDTH * 4);
		prints(" bits fail\n");
	}
}
 3001ad8:	a8c17bf3 	ldp	x19, x30, [sp],#16
 3001adc:	d65f03c0 	ret
				cr_writel(0x00000001, CR_EMMC_CTYPE); // 4bit
				cr_writel(0x00010001, CR_EMMC_UHSREG); //DDR mode, SW 1.8V
				break;
			case 6:
				cr_writel(0x00010000, CR_EMMC_CTYPE); // 8bit
				cr_writel(0x00010001, CR_EMMC_UHSREG); //DDR mode, SW 1.8V
 3001ae0:	d2840e80 	mov	x0, #0x2074                	// #8308
 3001ae4:	f2b30020 	movk	x0, #0x9801, lsl #16
			case 5:
				cr_writel(0x00000001, CR_EMMC_CTYPE); // 4bit
				cr_writel(0x00010001, CR_EMMC_UHSREG); //DDR mode, SW 1.8V
				break;
			case 6:
				cr_writel(0x00010000, CR_EMMC_CTYPE); // 8bit
 3001ae8:	52a00023 	mov	w3, #0x10000               	// #65536
 3001aec:	b9000043 	str	w3, [x2]
				cr_writel(0x00010001, CR_EMMC_UHSREG); //DDR mode, SW 1.8V
 3001af0:	320083e1 	mov	w1, #0x10001               	// #65537
 3001af4:	b9000001 	str	w1, [x0]
	else{
		prints("switch bus width to 0x");
		print_hex(WIDTH * 4);
		prints(" bits fail\n");
	}
}
 3001af8:	a8c17bf3 	ldp	x19, x30, [sp],#16
 3001afc:	d65f03c0 	ret
				cr_writel(0x00000000, CR_EMMC_CTYPE); // 1bit
				cr_writel(0x00000001, CR_EMMC_UHSREG); //non-DDR mode, SW 1.8V
				break;
			case 1:
				cr_writel(0x00000001, CR_EMMC_CTYPE); // 4bit
				cr_writel(0x00000001, CR_EMMC_UHSREG); //non-DDR mode, SW 1.8V
 3001b00:	d2840e81 	mov	x1, #0x2074                	// #8308
 3001b04:	f2b30021 	movk	x1, #0x9801, lsl #16
			case 0:
				cr_writel(0x00000000, CR_EMMC_CTYPE); // 1bit
				cr_writel(0x00000001, CR_EMMC_UHSREG); //non-DDR mode, SW 1.8V
				break;
			case 1:
				cr_writel(0x00000001, CR_EMMC_CTYPE); // 4bit
 3001b08:	52800020 	mov	w0, #0x1                   	// #1
 3001b0c:	b9000040 	str	w0, [x2]
				cr_writel(0x00000001, CR_EMMC_UHSREG); //non-DDR mode, SW 1.8V
 3001b10:	b9000020 	str	w0, [x1]
	else{
		prints("switch bus width to 0x");
		print_hex(WIDTH * 4);
		prints(" bits fail\n");
	}
}
 3001b14:	a8c17bf3 	ldp	x19, x30, [sp],#16
 3001b18:	d65f03c0 	ret
#endif
		switch(WIDTH)
		{
			case 0:
				cr_writel(0x00000000, CR_EMMC_CTYPE); // 1bit
				cr_writel(0x00000001, CR_EMMC_UHSREG); //non-DDR mode, SW 1.8V
 3001b1c:	d2840e80 	mov	x0, #0x2074                	// #8308
 3001b20:	f2b30020 	movk	x0, #0x9801, lsl #16
		prints(" bits success\n");
#endif
		switch(WIDTH)
		{
			case 0:
				cr_writel(0x00000000, CR_EMMC_CTYPE); // 1bit
 3001b24:	b900005f 	str	wzr, [x2]
				cr_writel(0x00000001, CR_EMMC_UHSREG); //non-DDR mode, SW 1.8V
 3001b28:	52800021 	mov	w1, #0x1                   	// #1
 3001b2c:	b9000001 	str	w1, [x0]
	else{
		prints("switch bus width to 0x");
		print_hex(WIDTH * 4);
		prints(" bits fail\n");
	}
}
 3001b30:	a8c17bf3 	ldp	x19, x30, [sp],#16
 3001b34:	d65f03c0 	ret

0000000003001b38 <switch_speed>:
void switch_speed(UINT8 speed){
 3001b38:	a9bf7bf3 	stp	x19, x30, [sp,#-16]!
 3001b3c:	53001c13 	uxtb	w19, w0
	int speed_modify=speed;
	if ((speed==0 )||(speed==1)){
 3001b40:	7100067f 	cmp	w19, #0x1
 3001b44:	540003c9 	b.ls	3001bbc <switch_speed+0x84>
 3001b48:	52a07721 	mov	w1, #0x3b90000             	// #62455808
 3001b4c:	2a132021 	orr	w1, w1, w19, lsl #8
		speed_modify=1;
	}
	CP15ISB;
 3001b50:	d5033fdf 	isb

	//speed - 0, backward compatible timing, 1: High speed, 2: HS200
	emmc_send_cmd_get_rsp(MMC_SWITCH, 0x03b90000|(speed_modify<<8), 1, 1);
 3001b54:	52800023 	mov	w3, #0x1                   	// #1
 3001b58:	528000c0 	mov	w0, #0x6                   	// #6
 3001b5c:	2a0303e2 	mov	w2, w3
 3001b60:	97fffe31 	bl	3001424 <emmc_send_cmd_get_rsp>
	emmc_send_cmd_get_rsp(MMC_SEND_STATUS, emmc_card.rca, 1, 1);
 3001b64:	b0000041 	adrp	x1, 300a000 <__FUNCTION__.3108+0x3d8>
 3001b68:	52800023 	mov	w3, #0x1                   	// #1
 3001b6c:	2a0303e2 	mov	w2, w3
 3001b70:	528001a0 	mov	w0, #0xd                   	// #13
 3001b74:	b94c3021 	ldr	w1, [x1,#3120]
 3001b78:	97fffe2b 	bl	3001424 <emmc_send_cmd_get_rsp>
	CP15ISB;
 3001b7c:	d5033fdf 	isb
	if ((cr_readl(CR_EMMC_RESP0)&0x80)==0){
 3001b80:	d2840600 	mov	x0, #0x2030                	// #8240
 3001b84:	f2b30020 	movk	x0, #0x9801, lsl #16
 3001b88:	b9400000 	ldr	w0, [x0]
 3001b8c:	37380060 	tbnz	w0, #7, 3001b98 <switch_speed+0x60>
	else{
		prints("switch speed to 0x");
		print_hex(speed);
		prints(" fail\n");
	}
}
 3001b90:	a8c17bf3 	ldp	x19, x30, [sp],#16
 3001b94:	d65f03c0 	ret
		print_hex(speed);
		prints(" success\n");
#endif
	}
	else{
		prints("switch speed to 0x");
 3001b98:	90000040 	adrp	x0, 3009000 <el3_vectors>
 3001b9c:	913a4000 	add	x0, x0, #0xe90
 3001ba0:	9400114c 	bl	30060d0 <prints>
		print_hex(speed);
 3001ba4:	2a1303e0 	mov	w0, w19
 3001ba8:	9400117c 	bl	3006198 <print_hex>
		prints(" fail\n");
	}
}
 3001bac:	a8c17bf3 	ldp	x19, x30, [sp],#16
#endif
	}
	else{
		prints("switch speed to 0x");
		print_hex(speed);
		prints(" fail\n");
 3001bb0:	90000040 	adrp	x0, 3009000 <el3_vectors>
 3001bb4:	913aa000 	add	x0, x0, #0xea8
 3001bb8:	14001146 	b	30060d0 <prints>
 3001bbc:	52802001 	mov	w1, #0x100                 	// #256
 3001bc0:	72a07721 	movk	w1, #0x3b9, lsl #16
 3001bc4:	17ffffe3 	b	3001b50 <switch_speed+0x18>

0000000003001bc8 <switch_partition>:
}

void switch_partition(emmc_partition_t partition){

	//0:default, 1: boot1, 2:boot2, 3: RPMB, 4~7: GP1~4
	emmc_send_cmd_get_rsp(MMC_SWITCH, 0x03b30000|(partition<<8), 1, 1);
 3001bc8:	52800023 	mov	w3, #0x1                   	// #1
 3001bcc:	52a07661 	mov	w1, #0x3b30000             	// #62062592
		print_hex(speed);
		prints(" fail\n");
	}
}

void switch_partition(emmc_partition_t partition){
 3001bd0:	a9bf7bf3 	stp	x19, x30, [sp,#-16]!

	//0:default, 1: boot1, 2:boot2, 3: RPMB, 4~7: GP1~4
	emmc_send_cmd_get_rsp(MMC_SWITCH, 0x03b30000|(partition<<8), 1, 1);
 3001bd4:	2a0303e2 	mov	w2, w3
 3001bd8:	2a002021 	orr	w1, w1, w0, lsl #8
		print_hex(speed);
		prints(" fail\n");
	}
}

void switch_partition(emmc_partition_t partition){
 3001bdc:	2a0003f3 	mov	w19, w0

	//0:default, 1: boot1, 2:boot2, 3: RPMB, 4~7: GP1~4
	emmc_send_cmd_get_rsp(MMC_SWITCH, 0x03b30000|(partition<<8), 1, 1);
 3001be0:	528000c0 	mov	w0, #0x6                   	// #6
 3001be4:	97fffe10 	bl	3001424 <emmc_send_cmd_get_rsp>
	emmc_send_cmd_get_rsp(MMC_SEND_STATUS, emmc_card.rca, 1, 1);
 3001be8:	b0000041 	adrp	x1, 300a000 <__FUNCTION__.3108+0x3d8>
 3001bec:	52800023 	mov	w3, #0x1                   	// #1
 3001bf0:	2a0303e2 	mov	w2, w3
 3001bf4:	528001a0 	mov	w0, #0xd                   	// #13
 3001bf8:	b94c3021 	ldr	w1, [x1,#3120]
 3001bfc:	97fffe0a 	bl	3001424 <emmc_send_cmd_get_rsp>
	CP15ISB;
 3001c00:	d5033fdf 	isb
	if ((cr_readl(CR_EMMC_RESP0)&0x80)==0){
 3001c04:	d2840600 	mov	x0, #0x2030                	// #8240
 3001c08:	f2b30020 	movk	x0, #0x9801, lsl #16
 3001c0c:	b9400000 	ldr	w0, [x0]
 3001c10:	37380060 	tbnz	w0, #7, 3001c1c <switch_partition+0x54>
	else{
		prints("switch partition to 0x");
		print_hex(partition);
		prints(" fail\n");
	}
}
 3001c14:	a8c17bf3 	ldp	x19, x30, [sp],#16
 3001c18:	d65f03c0 	ret
		print_hex(partition);
		prints(" success\n");
#endif
	}
	else{
		prints("switch partition to 0x");
 3001c1c:	90000040 	adrp	x0, 3009000 <el3_vectors>
 3001c20:	913ac000 	add	x0, x0, #0xeb0
 3001c24:	9400112b 	bl	30060d0 <prints>
		print_hex(partition);
 3001c28:	2a1303e0 	mov	w0, w19
 3001c2c:	9400115b 	bl	3006198 <print_hex>
		prints(" fail\n");
	}
}
 3001c30:	a8c17bf3 	ldp	x19, x30, [sp],#16
#endif
	}
	else{
		prints("switch partition to 0x");
		print_hex(partition);
		prints(" fail\n");
 3001c34:	90000040 	adrp	x0, 3009000 <el3_vectors>
 3001c38:	913aa000 	add	x0, x0, #0xea8
 3001c3c:	14001125 	b	30060d0 <prints>

0000000003001c40 <frequency>:
	}
}


int frequency(UINT32 fre, UINT32 div){
 3001c40:	a9bd53f3 	stp	x19, x20, [sp,#-48]!
#ifndef FPGA
	cr_writel((cr_readl(SYS_PLL_EMMC3)&0xffff) | (fre << 16), SYS_PLL_EMMC3);
 3001c44:	d2803f02 	mov	x2, #0x1f8                 	// #504
 3001c48:	f2b30002 	movk	x2, #0x9800, lsl #16
		prints(" fail\n");
	}
}


int frequency(UINT32 fre, UINT32 div){
 3001c4c:	a9015bf5 	stp	x21, x22, [sp,#16]
 3001c50:	f90013fe 	str	x30, [sp,#32]
 3001c54:	2a0103f6 	mov	w22, w1
#ifndef FPGA
	cr_writel((cr_readl(SYS_PLL_EMMC3)&0xffff) | (fre << 16), SYS_PLL_EMMC3);
 3001c58:	b9400041 	ldr	w1, [x2]
 3001c5c:	12003c21 	and	w1, w1, #0xffff
 3001c60:	2a004020 	orr	w0, w1, w0, lsl #16
 3001c64:	b9000040 	str	w0, [x2]
	CP15ISB;
 3001c68:	d5033fdf 	isb
	sync();
 3001c6c:	97fff9a8 	bl	300030c <sync>
#endif
	wait_done_timeout((UINT32*)CR_EMMC_STATUS, 0x200, 0x0); 	 //card is not busy
 3001c70:	52800002 	mov	w2, #0x0                   	// #0
 3001c74:	52804001 	mov	w1, #0x200                 	// #512
 3001c78:	d2840900 	mov	x0, #0x2048                	// #8264
 3001c7c:	f2b30020 	movk	x0, #0x9801, lsl #16
 3001c80:	97fffd38 	bl	3001160 <wait_done_timeout>
	CP15ISB;
 3001c84:	d5033fdf 	isb
	sync();

	//disable clock
	cr_writel(0, CR_EMMC_CLKENA);
 3001c88:	d2840215 	mov	x21, #0x2010                	// #8208
 3001c8c:	f2b30035 	movk	x21, #0x9801, lsl #16
	CP15ISB;
	sync();
#endif
	wait_done_timeout((UINT32*)CR_EMMC_STATUS, 0x200, 0x0); 	 //card is not busy
	CP15ISB;
	sync();
 3001c90:	97fff99f 	bl	300030c <sync>

	//disable clock
	cr_writel(0, CR_EMMC_CLKENA);
 3001c94:	b90002bf 	str	wzr, [x21]
	CP15ISB;
 3001c98:	d5033fdf 	isb
	sync();

	//EMMC Cmd
	cr_writel(0xa0202000, CR_EMMC_CMD);
 3001c9c:	d2840593 	mov	x19, #0x202c                	// #8236
 3001ca0:	f2b30033 	movk	x19, #0x9801, lsl #16
	sync();

	//disable clock
	cr_writel(0, CR_EMMC_CLKENA);
	CP15ISB;
	sync();
 3001ca4:	97fff99a 	bl	300030c <sync>

	//EMMC Cmd
	cr_writel(0xa0202000, CR_EMMC_CMD);
 3001ca8:	52840014 	mov	w20, #0x2000                	// #8192
 3001cac:	72b40414 	movk	w20, #0xa020, lsl #16
 3001cb0:	b9000274 	str	w20, [x19]
	CP15ISB;
 3001cb4:	d5033fdf 	isb
	sync();
 3001cb8:	97fff995 	bl	300030c <sync>
	wait_done_timeout((UINT32*)CR_EMMC_CMD, 0x80000000, 0x0);
 3001cbc:	52800002 	mov	w2, #0x0                   	// #0
 3001cc0:	52b00001 	mov	w1, #0x80000000            	// #-2147483648
 3001cc4:	aa1303e0 	mov	x0, x19
 3001cc8:	97fffd26 	bl	3001160 <wait_done_timeout>
	CP15ISB;
 3001ccc:	d5033fdf 	isb
	sync();
 3001cd0:	97fff98f 	bl	300030c <sync>

	//set divider
	cr_writel(div, CR_EMMC_CLKDIV);
 3001cd4:	d2840100 	mov	x0, #0x2008                	// #8200
 3001cd8:	f2b30020 	movk	x0, #0x9801, lsl #16
 3001cdc:	b9000016 	str	w22, [x0]
	CP15ISB;
 3001ce0:	d5033fdf 	isb
	sync();
 3001ce4:	97fff98a 	bl	300030c <sync>

	//EMMC Cmd
	cr_writel(0xa0202000, CR_EMMC_CMD);
 3001ce8:	b9000274 	str	w20, [x19]
	CP15ISB;
 3001cec:	d5033fdf 	isb
	sync();
 3001cf0:	97fff987 	bl	300030c <sync>
	wait_done_timeout((UINT32*)CR_EMMC_CMD, 0x80000000, 0x0);
 3001cf4:	52800002 	mov	w2, #0x0                   	// #0
 3001cf8:	52b00001 	mov	w1, #0x80000000            	// #-2147483648
 3001cfc:	aa1303e0 	mov	x0, x19
 3001d00:	97fffd18 	bl	3001160 <wait_done_timeout>
	CP15ISB;
 3001d04:	d5033fdf 	isb
	sync();
 3001d08:	97fff981 	bl	300030c <sync>

	//enable clock
	cr_writel(0x10001, CR_EMMC_CLKENA);
 3001d0c:	320083e0 	mov	w0, #0x10001               	// #65537
 3001d10:	b90002a0 	str	w0, [x21]
	CP15ISB;
 3001d14:	d5033fdf 	isb
	sync();
 3001d18:	97fff97d 	bl	300030c <sync>

	//EMMC Cmd
	cr_writel(0xa0202000, CR_EMMC_CMD);
 3001d1c:	b9000274 	str	w20, [x19]
	CP15ISB;
 3001d20:	d5033fdf 	isb
	sync();
 3001d24:	97fff97a 	bl	300030c <sync>
	wait_done_timeout((UINT32*)CR_EMMC_CMD, 0x80000000, 0x0);
 3001d28:	52800002 	mov	w2, #0x0                   	// #0
 3001d2c:	52b00001 	mov	w1, #0x80000000            	// #-2147483648
 3001d30:	aa1303e0 	mov	x0, x19
 3001d34:	97fffd0b 	bl	3001160 <wait_done_timeout>
	CP15ISB;
 3001d38:	d5033fdf 	isb
	sync();
 3001d3c:	97fff974 	bl	300030c <sync>

	prints("frequency divider is 0x");
	print_hex(div);
	prints("\n");
#endif
}
 3001d40:	a9415bf5 	ldp	x21, x22, [sp,#16]
 3001d44:	f94013fe 	ldr	x30, [sp,#32]
 3001d48:	a8c353f3 	ldp	x19, x20, [sp],#48
 3001d4c:	d65f03c0 	ret

0000000003001d50 <init_card_rca>:
}
#endif // 0

void init_card_rca(void)
{
	emmc_card.rca = 1 << RCA_SHIFTER;
 3001d50:	b0000040 	adrp	x0, 300a000 <__FUNCTION__.3108+0x3d8>
 3001d54:	52a00021 	mov	w1, #0x10000               	// #65536
 3001d58:	b90c3001 	str	w1, [x0,#3120]
}
 3001d5c:	d65f03c0 	ret

0000000003001d60 <do_HW_RSA>:

/************************************************************************
 *  Function body
 ************************************************************************/
int do_HW_RSA(const unsigned int signature_addr, const rsa_key_t *p_rsa_key, const unsigned int output_addr)
{
 3001d60:	a9ab53f3 	stp	x19, x20, [sp,#-336]!
 3001d64:	a9015bf5 	stp	x21, x22, [sp,#16]
 3001d68:	a90263f7 	stp	x23, x24, [sp,#32]
 3001d6c:	f9001bfe 	str	x30, [sp,#48]

#ifdef ENV_SIMULATION
	tcnt = 10000;
#endif

	if (p_rsa_key == NULL) {
 3001d70:	b4000b81 	cbz	x1, 3001ee0 <do_HW_RSA+0x180>
		return ERR_INVALID_PARAM;
	}

	if ((p_rsa_key->type == NORMAL_KEY) && (p_rsa_key->key == NULL)) {
 3001d74:	b9400023 	ldr	w3, [x1]
 3001d78:	35000063 	cbnz	w3, 3001d84 <do_HW_RSA+0x24>
 3001d7c:	f9400423 	ldr	x3, [x1,#8]
 3001d80:	b4000b03 	cbz	x3, 3001ee0 <do_HW_RSA+0x180>
 3001d84:	2a0003f4 	mov	w20, w0
 3001d88:	2a0203f8 	mov	w24, w2
 3001d8c:	aa0103f3 	mov	x19, x1
		return ERR_INVALID_PARAM;
	}

	loopsTrap(); //random delay to avoid timing attack
 3001d90:	9400168c 	bl	30077c0 <loopsTrap>

	// prepare RSA input
	// M: message
	if (copy_memory((char *)(uintptr_t)RSA_M_ADDR, (char *)(uintptr_t)signature_addr, RSA_SIGNATURE_LENGTH) != RSA_SIGNATURE_LENGTH)
 3001d94:	2a1403e1 	mov	w1, w20
 3001d98:	52802002 	mov	w2, #0x100                 	// #256
 3001d9c:	d2980000 	mov	x0, #0xc000                	// #49152
 3001da0:	f2b30080 	movk	x0, #0x9804, lsl #16
 3001da4:	9400159c 	bl	3007414 <copy_memory>
 3001da8:	7104001f 	cmp	w0, #0x100
 3001dac:	2a0003f4 	mov	w20, w0
 3001db0:	54000d81 	b.ne	3001f60 <do_HW_RSA+0x200>
		faultDetect();

	if (p_rsa_key->type == NORMAL_KEY) { // key from input
 3001db4:	b9400260 	ldr	w0, [x19]
 3001db8:	34000ac0 	cbz	w0, 3001f10 <do_HW_RSA+0x1b0>
			faultDetect();
		// E: exponent
		if (copy_memory((char *)(uintptr_t)RSA_E_ADDR, publicExponent, RSA_SIGNATURE_LENGTH) != RSA_SIGNATURE_LENGTH)
			faultDetect();
	}
	else if (p_rsa_key->type > CONST_KEY4) { // only support 4 constant key
 3001dbc:	7100101f 	cmp	w0, #0x4
 3001dc0:	54000d08 	b.hi	3001f60 <do_HW_RSA+0x200>
		PrintInfo("RSA const key", p_rsa_key->type);
	}
#endif

#ifdef ENABLE_MMU
	sys_dcache_flush_MVA(RSA_M_ADDR, RSA_M_ADDR + RSA_SIGNATURE_LENGTH);
 3001dc4:	52982001 	mov	w1, #0xc100                	// #49408
 3001dc8:	72b30081 	movk	w1, #0x9804, lsl #16
 3001dcc:	52980000 	mov	w0, #0xc000                	// #49152
 3001dd0:	72b30080 	movk	w0, #0x9804, lsl #16
 3001dd4:	97fff89e 	bl	300004c <sys_dcache_flush_MVA>
	if (p_rsa_key->type == NORMAL_KEY) {
 3001dd8:	b9400260 	ldr	w0, [x19]
 3001ddc:	34000c40 	cbz	w0, 3001f64 <do_HW_RSA+0x204>
		sys_dcache_flush_MVA(RSA_E_ADDR, RSA_E_ADDR + RSA_SIGNATURE_LENGTH);
	}
#endif

	// set n_sel & key_sel
	value = REG32(RSA_CTRL1) & 0x03ff;
 3001de0:	d299e004 	mov	x4, #0xcf00                	// #52992
 3001de4:	f2b30084 	movk	x4, #0x9804, lsl #16
	value = value | (p_rsa_key->type << 13) | (p_rsa_key->type << 10);
 3001de8:	53165405 	lsl	w5, w0, #10
	REG32(RSA_CTRL1) = value;

	// set go bit & int_en bit
	REG32(RSA_CTRL3) |= ((0x1 << 31) | (0x1 << 1));
 3001dec:	d299e103 	mov	x3, #0xcf08                	// #53000
 3001df0:	f2b30083 	movk	x3, #0x9804, lsl #16
		sys_dcache_flush_MVA(RSA_E_ADDR, RSA_E_ADDR + RSA_SIGNATURE_LENGTH);
	}
#endif

	// set n_sel & key_sel
	value = REG32(RSA_CTRL1) & 0x03ff;
 3001df4:	b9400082 	ldr	w2, [x4]
 3001df8:	2a0034a0 	orr	w0, w5, w0, lsl #13
	value = value | (p_rsa_key->type << 13) | (p_rsa_key->type << 10);
	REG32(RSA_CTRL1) = value;

	// set go bit & int_en bit
	REG32(RSA_CTRL3) |= ((0x1 << 31) | (0x1 << 1));
 3001dfc:	52800041 	mov	w1, #0x2                   	// #2
 3001e00:	72b00001 	movk	w1, #0x8000, lsl #16
		sys_dcache_flush_MVA(RSA_E_ADDR, RSA_E_ADDR + RSA_SIGNATURE_LENGTH);
	}
#endif

	// set n_sel & key_sel
	value = REG32(RSA_CTRL1) & 0x03ff;
 3001e04:	12002442 	and	w2, w2, #0x3ff
 3001e08:	b9004fe2 	str	w2, [sp,#76]
	REG32(RSA_CTRL1) = value;

	// set go bit & int_en bit
	REG32(RSA_CTRL3) |= ((0x1 << 31) | (0x1 << 1));
	while (tcnt >= 0) {
		value = REG32(RSA_CTRL4);
 3001e0c:	d299e196 	mov	x22, #0xcf0c                	// #53004
 3001e10:	f2b30096 	movk	x22, #0x9804, lsl #16
	}
#endif

	// set n_sel & key_sel
	value = REG32(RSA_CTRL1) & 0x03ff;
	value = value | (p_rsa_key->type << 13) | (p_rsa_key->type << 10);
 3001e14:	b9404fe2 	ldr	w2, [sp,#76]
	REG32(RSA_CTRL1) = value;

	// set go bit & int_en bit
	REG32(RSA_CTRL3) |= ((0x1 << 31) | (0x1 << 1));
 3001e18:	52807d34 	mov	w20, #0x3e9                 	// #1001
	while (tcnt >= 0) {
		value = REG32(RSA_CTRL4);
		if ((value & STATUS_MASK_DONE) == STATUS_MASK_DONE) {
 3001e1c:	52800275 	mov	w21, #0x13                  	// #19
			break; // RSA done without error
		}
		else if (value & STATUS_MASK_ERROR) {
 3001e20:	528e1817 	mov	w23, #0x70c0                	// #28864
	}
#endif

	// set n_sel & key_sel
	value = REG32(RSA_CTRL1) & 0x03ff;
	value = value | (p_rsa_key->type << 13) | (p_rsa_key->type << 10);
 3001e24:	2a020000 	orr	w0, w0, w2
 3001e28:	b9004fe0 	str	w0, [sp,#76]
	REG32(RSA_CTRL1) = value;
 3001e2c:	b9404fe0 	ldr	w0, [sp,#76]
 3001e30:	b9000080 	str	w0, [x4]

	// set go bit & int_en bit
	REG32(RSA_CTRL3) |= ((0x1 << 31) | (0x1 << 1));
 3001e34:	b9400060 	ldr	w0, [x3]
 3001e38:	2a010000 	orr	w0, w0, w1
 3001e3c:	b9000060 	str	w0, [x3]
 3001e40:	14000009 	b	3001e64 <do_HW_RSA+0x104>
	while (tcnt >= 0) {
		value = REG32(RSA_CTRL4);
		if ((value & STATUS_MASK_DONE) == STATUS_MASK_DONE) {
			break; // RSA done without error
		}
		else if (value & STATUS_MASK_ERROR) {
 3001e44:	b9404fe0 	ldr	w0, [sp,#76]
 3001e48:	6a17001f 	tst	w0, w23
 3001e4c:	54000561 	b.ne	3001ef8 <do_HW_RSA+0x198>
			return ERR_RSA_ERROR;
		}
		mdelay(0,1);
 3001e50:	52800021 	mov	w1, #0x1                   	// #1
 3001e54:	52800000 	mov	w0, #0x0                   	// #0
 3001e58:	94000f03 	bl	3005a64 <mdelay>
	value = value | (p_rsa_key->type << 13) | (p_rsa_key->type << 10);
	REG32(RSA_CTRL1) = value;

	// set go bit & int_en bit
	REG32(RSA_CTRL3) |= ((0x1 << 31) | (0x1 << 1));
	while (tcnt >= 0) {
 3001e5c:	71000694 	subs	w20, w20, #0x1
 3001e60:	540009a0 	b.eq	3001f94 <do_HW_RSA+0x234>
		value = REG32(RSA_CTRL4);
 3001e64:	b94002c0 	ldr	w0, [x22]
 3001e68:	b9004fe0 	str	w0, [sp,#76]
		if ((value & STATUS_MASK_DONE) == STATUS_MASK_DONE) {
 3001e6c:	b9404ff3 	ldr	w19, [sp,#76]
 3001e70:	0a150273 	and	w19, w19, w21
 3001e74:	71004e7f 	cmp	w19, #0x13
 3001e78:	54fffe61 	b.ne	3001e44 <do_HW_RSA+0xe4>
		prints("RSA timeout\n");
		return ERR_TIMEOUT;
        }

	// RSA result address (without padding bytes)
	if (copy_memory((char *)(uintptr_t)output_addr, (char *)(uintptr_t)RSA_RR_MODE_N_ADDR, 32) != 32)
 3001e7c:	52800402 	mov	w2, #0x20                  	// #32
 3001e80:	d2983001 	mov	x1, #0xc180                	// #49536
 3001e84:	f2b30081 	movk	x1, #0x9804, lsl #16
 3001e88:	2a1803e0 	mov	w0, w24
 3001e8c:	94001562 	bl	3007414 <copy_memory>
 3001e90:	7100801f 	cmp	w0, #0x20
 3001e94:	54000661 	b.ne	3001f60 <do_HW_RSA+0x200>
		faultDetect();
#ifdef ENABLE_MMU
	sys_dcache_flush_MVA(output_addr, output_addr+32);
 3001e98:	11008314 	add	w20, w24, #0x20
 3001e9c:	2a1803e0 	mov	w0, w24
 3001ea0:	2a1403e1 	mov	w1, w20
 3001ea4:	97fff86a 	bl	300004c <sys_dcache_flush_MVA>
#endif
	reverse_rsa_signature(output_addr);
 3001ea8:	2a1803e0 	mov	w0, w24
 3001eac:	940016bd 	bl	30079a0 <reverse_rsa_signature>
#ifdef ENABLE_MMU
	sys_dcache_flush_MVA(output_addr, output_addr+32);
 3001eb0:	2a1403e1 	mov	w1, w20
 3001eb4:	2a1803e0 	mov	w0, w24
 3001eb8:	97fff865 	bl	300004c <sys_dcache_flush_MVA>
#endif
	return (value & STATUS_MASK_DONE ? OK : ERR_RSA_ERROR);
 3001ebc:	b9404fe1 	ldr	w1, [sp,#76]
 3001ec0:	52800640 	mov	w0, #0x32                  	// #50
 3001ec4:	6a13003f 	tst	w1, w19
 3001ec8:	1a8013e0 	csel	w0, wzr, w0, ne
}
 3001ecc:	a9415bf5 	ldp	x21, x22, [sp,#16]
 3001ed0:	a94263f7 	ldp	x23, x24, [sp,#32]
 3001ed4:	f9401bfe 	ldr	x30, [sp,#48]
 3001ed8:	a8d553f3 	ldp	x19, x20, [sp],#336
 3001edc:	d65f03c0 	ret
 3001ee0:	a9415bf5 	ldp	x21, x22, [sp,#16]
 3001ee4:	a94263f7 	ldp	x23, x24, [sp,#32]
 3001ee8:	f9401bfe 	ldr	x30, [sp,#48]
#ifdef ENV_SIMULATION
	tcnt = 10000;
#endif

	if (p_rsa_key == NULL) {
		return ERR_INVALID_PARAM;
 3001eec:	52801260 	mov	w0, #0x93                  	// #147
	reverse_rsa_signature(output_addr);
#ifdef ENABLE_MMU
	sys_dcache_flush_MVA(output_addr, output_addr+32);
#endif
	return (value & STATUS_MASK_DONE ? OK : ERR_RSA_ERROR);
}
 3001ef0:	a8d553f3 	ldp	x19, x20, [sp],#336
 3001ef4:	d65f03c0 	ret
 3001ef8:	a9415bf5 	ldp	x21, x22, [sp,#16]
 3001efc:	a94263f7 	ldp	x23, x24, [sp,#32]
 3001f00:	f9401bfe 	ldr	x30, [sp,#48]
		value = REG32(RSA_CTRL4);
		if ((value & STATUS_MASK_DONE) == STATUS_MASK_DONE) {
			break; // RSA done without error
		}
		else if (value & STATUS_MASK_ERROR) {
			return ERR_RSA_ERROR;
 3001f04:	52800640 	mov	w0, #0x32                  	// #50
	reverse_rsa_signature(output_addr);
#ifdef ENABLE_MMU
	sys_dcache_flush_MVA(output_addr, output_addr+32);
#endif
	return (value & STATUS_MASK_DONE ? OK : ERR_RSA_ERROR);
}
 3001f08:	a8d553f3 	ldp	x19, x20, [sp],#336
 3001f0c:	d65f03c0 	ret
	// M: message
	if (copy_memory((char *)(uintptr_t)RSA_M_ADDR, (char *)(uintptr_t)signature_addr, RSA_SIGNATURE_LENGTH) != RSA_SIGNATURE_LENGTH)
		faultDetect();

	if (p_rsa_key->type == NORMAL_KEY) { // key from input
		set_memory(publicExponent, 0x00, sizeof(publicExponent));
 3001f10:	2a1403e2 	mov	w2, w20
 3001f14:	52800001 	mov	w1, #0x0                   	// #0
 3001f18:	910143e0 	add	x0, sp, #0x50
 3001f1c:	940014b8 	bl	30071fc <set_memory>
		publicExponent[0] = 65537; //default public exponent
		// N: modules
		if (copy_memory((char *)(uintptr_t)RSA_N_ADDR, p_rsa_key->key, RSA_SIGNATURE_LENGTH) != RSA_SIGNATURE_LENGTH)
 3001f20:	f9400661 	ldr	x1, [x19,#8]
	if (copy_memory((char *)(uintptr_t)RSA_M_ADDR, (char *)(uintptr_t)signature_addr, RSA_SIGNATURE_LENGTH) != RSA_SIGNATURE_LENGTH)
		faultDetect();

	if (p_rsa_key->type == NORMAL_KEY) { // key from input
		set_memory(publicExponent, 0x00, sizeof(publicExponent));
		publicExponent[0] = 65537; //default public exponent
 3001f24:	320083e3 	mov	w3, #0x10001               	// #65537
		// N: modules
		if (copy_memory((char *)(uintptr_t)RSA_N_ADDR, p_rsa_key->key, RSA_SIGNATURE_LENGTH) != RSA_SIGNATURE_LENGTH)
 3001f28:	2a1403e2 	mov	w2, w20
 3001f2c:	d2989000 	mov	x0, #0xc480                	// #50304
 3001f30:	f2b30080 	movk	x0, #0x9804, lsl #16
	if (copy_memory((char *)(uintptr_t)RSA_M_ADDR, (char *)(uintptr_t)signature_addr, RSA_SIGNATURE_LENGTH) != RSA_SIGNATURE_LENGTH)
		faultDetect();

	if (p_rsa_key->type == NORMAL_KEY) { // key from input
		set_memory(publicExponent, 0x00, sizeof(publicExponent));
		publicExponent[0] = 65537; //default public exponent
 3001f34:	b90053e3 	str	w3, [sp,#80]
		// N: modules
		if (copy_memory((char *)(uintptr_t)RSA_N_ADDR, p_rsa_key->key, RSA_SIGNATURE_LENGTH) != RSA_SIGNATURE_LENGTH)
 3001f38:	94001537 	bl	3007414 <copy_memory>
 3001f3c:	7104001f 	cmp	w0, #0x100
 3001f40:	54000101 	b.ne	3001f60 <do_HW_RSA+0x200>
			faultDetect();
		// E: exponent
		if (copy_memory((char *)(uintptr_t)RSA_E_ADDR, publicExponent, RSA_SIGNATURE_LENGTH) != RSA_SIGNATURE_LENGTH)
 3001f44:	2a0003e2 	mov	w2, w0
 3001f48:	910143e1 	add	x1, sp, #0x50
 3001f4c:	d298c000 	mov	x0, #0xc600                	// #50688
 3001f50:	f2b30080 	movk	x0, #0x9804, lsl #16
 3001f54:	94001530 	bl	3007414 <copy_memory>
 3001f58:	7104001f 	cmp	w0, #0x100
 3001f5c:	54fff340 	b.eq	3001dc4 <do_HW_RSA+0x64>
	loopsTrap(); //random delay to avoid timing attack

	// prepare RSA input
	// M: message
	if (copy_memory((char *)(uintptr_t)RSA_M_ADDR, (char *)(uintptr_t)signature_addr, RSA_SIGNATURE_LENGTH) != RSA_SIGNATURE_LENGTH)
		faultDetect();
 3001f60:	940014db 	bl	30072cc <faultDetect>
#endif

#ifdef ENABLE_MMU
	sys_dcache_flush_MVA(RSA_M_ADDR, RSA_M_ADDR + RSA_SIGNATURE_LENGTH);
	if (p_rsa_key->type == NORMAL_KEY) {
		sys_dcache_flush_MVA(RSA_N_ADDR, RSA_N_ADDR + RSA_SIGNATURE_LENGTH);
 3001f64:	5298b001 	mov	w1, #0xc580                	// #50560
 3001f68:	72b30081 	movk	w1, #0x9804, lsl #16
 3001f6c:	52989000 	mov	w0, #0xc480                	// #50304
 3001f70:	72b30080 	movk	w0, #0x9804, lsl #16
 3001f74:	97fff836 	bl	300004c <sys_dcache_flush_MVA>
		sys_dcache_flush_MVA(RSA_E_ADDR, RSA_E_ADDR + RSA_SIGNATURE_LENGTH);
 3001f78:	5298e001 	mov	w1, #0xc700                	// #50944
 3001f7c:	72b30081 	movk	w1, #0x9804, lsl #16
 3001f80:	5298c000 	mov	w0, #0xc600                	// #50688
 3001f84:	72b30080 	movk	w0, #0x9804, lsl #16
 3001f88:	97fff831 	bl	300004c <sys_dcache_flush_MVA>
 3001f8c:	b9400260 	ldr	w0, [x19]
 3001f90:	17ffff94 	b	3001de0 <do_HW_RSA+0x80>
#ifdef RSA_DEBUG
	PrintInfo("RSA_CTRL4", value);
#endif

	if(tcnt < 0) {
		prints("RSA timeout\n");
 3001f94:	90000040 	adrp	x0, 3009000 <el3_vectors>
 3001f98:	913b2000 	add	x0, x0, #0xec8
 3001f9c:	9400104d 	bl	30060d0 <prints>
		return ERR_TIMEOUT;
 3001fa0:	52801220 	mov	w0, #0x91                  	// #145
 3001fa4:	17ffffca 	b	3001ecc <do_HW_RSA+0x16c>

0000000003001fa8 <do_mcp.constprop.0>:
	PrintInfo("\tword 12", dscpt->dst_addr);
	PrintInfo("\tword 13", dscpt->length);
}
#endif

static int do_mcp(t_mcp_descriptor *dscpt)
 3001fa8:	a9bd53f3 	stp	x19, x20, [sp,#-48]!
{
	volatile UINT32 dscpt_addr=0;
	int res, count=0;
	volatile UINT32 status_reg=0;

	dscpt_addr = (uintptr_t)dscpt;
 3001fac:	b0000053 	adrp	x19, 300a000 <__FUNCTION__.3108+0x3d8>
 3001fb0:	9132c273 	add	x19, x19, #0xcb0
}
#endif

static int do_mcp(t_mcp_descriptor *dscpt)
{
	volatile UINT32 dscpt_addr=0;
 3001fb4:	b9002bff 	str	wzr, [sp,#40]
	int res, count=0;
	volatile UINT32 status_reg=0;
 3001fb8:	b9002fff 	str	wzr, [sp,#44]

	dscpt_addr = (uintptr_t)dscpt;
 3001fbc:	b9002bf3 	str	w19, [sp,#40]
	PrintInfo("\tword 12", dscpt->dst_addr);
	PrintInfo("\tword 13", dscpt->length);
}
#endif

static int do_mcp(t_mcp_descriptor *dscpt)
 3001fc0:	f9000bfe 	str	x30, [sp,#16]
	dscpt_addr = (uintptr_t)dscpt;
	if (dscpt == NULL)
		return ERR_INVALID_PARAM;

#ifdef ENABLE_MMU
	sys_dcache_flush_MVA(dscpt_addr, dscpt_addr + sizeof(t_mcp_descriptor)*2);
 3001fc4:	b9402be0 	ldr	w0, [sp,#40]
 3001fc8:	b9402be1 	ldr	w1, [sp,#40]
 3001fcc:	1101c021 	add	w1, w1, #0x70
 3001fd0:	97fff81f 	bl	300004c <sys_dcache_flush_MVA>
	PrintInfo("rd dscpt", dscpt_addr);
	PrintInfo("wr dscpt", dscpt_addr + sizeof(t_mcp_descriptor));
#endif

	// disable interrupt
	REG32(MCP_EN) = 0xfe;
 3001fd4:	d28a2103 	mov	x3, #0x5108                	// #20744
 3001fd8:	f2b30023 	movk	x3, #0x9801, lsl #16

	// disable go bit
	REG32(MCP_CTRL) = 0x2;
 3001fdc:	d28a2000 	mov	x0, #0x5100                	// #20736
 3001fe0:	f2b30020 	movk	x0, #0x9801, lsl #16

	// set ring buffer register
	REG32(MCP_BASE)  = (uintptr_t)dscpt;
 3001fe4:	d28a2182 	mov	x2, #0x510c                	// #20748
 3001fe8:	f2b30022 	movk	x2, #0x9801, lsl #16
	PrintInfo("rd dscpt", dscpt_addr);
	PrintInfo("wr dscpt", dscpt_addr + sizeof(t_mcp_descriptor));
#endif

	// disable interrupt
	REG32(MCP_EN) = 0xfe;
 3001fec:	52801fc4 	mov	w4, #0xfe                  	// #254
 3001ff0:	b9000064 	str	w4, [x3]

	// disable go bit
	REG32(MCP_CTRL) = 0x2;
 3001ff4:	52800041 	mov	w1, #0x2                   	// #2
 3001ff8:	b9000001 	str	w1, [x0]

	// set ring buffer register
	REG32(MCP_BASE)  = (uintptr_t)dscpt;
 3001ffc:	b9000053 	str	w19, [x2]
	REG32(MCP_LIMIT) = (uintptr_t)dscpt_addr + sizeof(t_mcp_descriptor)*2;
 3002000:	d28a2205 	mov	x5, #0x5110                	// #20752
 3002004:	f2b30025 	movk	x5, #0x9801, lsl #16
 3002008:	b9402be1 	ldr	w1, [sp,#40]
	REG32(MCP_RDPTR) = (uintptr_t)dscpt;
 300200c:	d28a2284 	mov	x4, #0x5114                	// #20756
 3002010:	f2b30024 	movk	x4, #0x9801, lsl #16
	// disable go bit
	REG32(MCP_CTRL) = 0x2;

	// set ring buffer register
	REG32(MCP_BASE)  = (uintptr_t)dscpt;
	REG32(MCP_LIMIT) = (uintptr_t)dscpt_addr + sizeof(t_mcp_descriptor)*2;
 3002014:	1101c021 	add	w1, w1, #0x70
 3002018:	b90000a1 	str	w1, [x5]
	REG32(MCP_RDPTR) = (uintptr_t)dscpt;
	REG32(MCP_WRPTR) = (uintptr_t)dscpt_addr + sizeof(t_mcp_descriptor);	// writer pointer cannot be equal to limit

	//mcp descriptor in sram
	if ((REG32(MCP_BASE) >= SRAM_BASE_PHY) && (REG32(MCP_BASE) <= SRAM_LAST_ADDR)) {
 300201c:	d03e7fe0 	adrp	x0, 80000000 <_sram>
 3002020:	91000000 	add	x0, x0, #0x0
	REG32(MCP_CTRL) = 0x2;

	// set ring buffer register
	REG32(MCP_BASE)  = (uintptr_t)dscpt;
	REG32(MCP_LIMIT) = (uintptr_t)dscpt_addr + sizeof(t_mcp_descriptor)*2;
	REG32(MCP_RDPTR) = (uintptr_t)dscpt;
 3002024:	b9000093 	str	w19, [x4]
	REG32(MCP_WRPTR) = (uintptr_t)dscpt_addr + sizeof(t_mcp_descriptor);	// writer pointer cannot be equal to limit
 3002028:	b9402be1 	ldr	w1, [sp,#40]
 300202c:	1100e021 	add	w1, w1, #0x38
 3002030:	b9001061 	str	w1, [x3,#16]

	//mcp descriptor in sram
	if ((REG32(MCP_BASE) >= SRAM_BASE_PHY) && (REG32(MCP_BASE) <= SRAM_LAST_ADDR)) {
 3002034:	b9400041 	ldr	w1, [x2]
 3002038:	eb21401f 	cmp	x0, w1, uxtw
 300203c:	540000c8 	b.hi	3002054 <do_mcp.constprop.0+0xac>
 3002040:	b9400041 	ldr	w1, [x2]
 3002044:	91407c00 	add	x0, x0, #0x1f, lsl #12
 3002048:	913ffc00 	add	x0, x0, #0xfff
 300204c:	eb21401f 	cmp	x0, w1, uxtw
 3002050:	540006e2 	b.cs	300212c <do_mcp.constprop.0+0x184>
		REG32(MCP_DES_COUNT) = 0x80000000;
	}
	else {
		REG32(MCP_DES_COUNT) &= ~0x80000000;
 3002054:	d28a2681 	mov	x1, #0x5134                	// #20788
 3002058:	f2b30021 	movk	x1, #0x9801, lsl #16
 300205c:	b9400020 	ldr	w0, [x1]
 3002060:	12007800 	and	w0, w0, #0x7fffffff
 3002064:	b9000020 	str	w0, [x1]
	PrintInfo("\tMCP_RD PTR", REG32(MCP_RDPTR));
	PrintInfo("\tMCP_WR PTR", REG32(MCP_WRPTR));
	PrintInfo("\tMCP_DES_COUNT", REG32(MCP_DES_COUNT));
#endif

	loopsTrap(); //random delay to avoid timing attack
 3002068:	940015d6 	bl	30077c0 <loopsTrap>
	sync();
 300206c:	97fff8a8 	bl	300030c <sync>
    CP15ISB;
 3002070:	d5033fdf 	isb

	// go
	REG32(MCP_CTRL) = 0x3;
 3002074:	d28a2001 	mov	x1, #0x5100                	// #20736
 3002078:	f2b30021 	movk	x1, #0x9801, lsl #16
    	count = 0;
	while ((REG32(MCP_STATUS) & 0x6) == 0){
 300207c:	d28a2080 	mov	x0, #0x5104                	// #20740
 3002080:	f2b30020 	movk	x0, #0x9801, lsl #16
	loopsTrap(); //random delay to avoid timing attack
	sync();
    CP15ISB;

	// go
	REG32(MCP_CTRL) = 0x3;
 3002084:	52800062 	mov	w2, #0x3                   	// #3
    	count = 0;
	while ((REG32(MCP_STATUS) & 0x6) == 0){
 3002088:	aa0003f4 	mov	x20, x0
	loopsTrap(); //random delay to avoid timing attack
	sync();
    CP15ISB;

	// go
	REG32(MCP_CTRL) = 0x3;
 300208c:	b9000022 	str	w2, [x1]
    	count = 0;
	while ((REG32(MCP_STATUS) & 0x6) == 0){
 3002090:	52807d33 	mov	w19, #0x3e9                 	// #1001
 3002094:	b9400000 	ldr	w0, [x0]
 3002098:	721f041f 	tst	w0, #0x6
 300209c:	54000080 	b.eq	30020ac <do_mcp.constprop.0+0x104>
 30020a0:	1400000b 	b	30020cc <do_mcp.constprop.0+0x124>
        if (count > 1000){
 30020a4:	71000673 	subs	w19, w19, #0x1
 30020a8:	540004c0 	b.eq	3002140 <do_mcp.constprop.0+0x198>
            REG32(MCP_CTRL) = 0x2;
	        REG32(MCP_STATUS) = 0x6;
            return ERR_MCP_ERROR;
        }

        mdelay(0, 1);
 30020ac:	52800021 	mov	w1, #0x1                   	// #1
 30020b0:	52800000 	mov	w0, #0x0                   	// #0
 30020b4:	94000e6c 	bl	3005a64 <mdelay>
    CP15ISB;

	// go
	REG32(MCP_CTRL) = 0x3;
    	count = 0;
	while ((REG32(MCP_STATUS) & 0x6) == 0){
 30020b8:	b9400280 	ldr	w0, [x20]
 30020bc:	d28a2081 	mov	x1, #0x5104                	// #20740
 30020c0:	f2b30021 	movk	x1, #0x9801, lsl #16
 30020c4:	721f041f 	tst	w0, #0x6
 30020c8:	54fffee0 	b.eq	30020a4 <do_mcp.constprop.0+0xfc>

        mdelay(0, 1);
        count++;
    };

	sync();
 30020cc:	97fff890 	bl	300030c <sync>

	// check result
	status_reg = REG32(MCP_STATUS);
 30020d0:	d28a2081 	mov	x1, #0x5104                	// #20740
 30020d4:	f2b30021 	movk	x1, #0x9801, lsl #16
	if (status_reg & 0x4)
		res = ERR_MCP_ERROR;	// error happened
 30020d8:	52800600 	mov	w0, #0x30                  	// #48
    };

	sync();

	// check result
	status_reg = REG32(MCP_STATUS);
 30020dc:	b9400021 	ldr	w1, [x1]
 30020e0:	b9002fe1 	str	w1, [sp,#44]
	if (status_reg & 0x4)
 30020e4:	b9402fe1 	ldr	w1, [sp,#44]
 30020e8:	371000c1 	tbnz	w1, #2, 3002100 <do_mcp.constprop.0+0x158>
		res = ERR_MCP_ERROR;	// error happened
	else if (status_reg & 0x2)
 30020ec:	b9402fe1 	ldr	w1, [sp,#44]
		res = OK;	// MCP completed without error
	else
		res = ERR_UNKNOWN_TYPE;	// ???
 30020f0:	52801240 	mov	w0, #0x92                  	// #146

	// check result
	status_reg = REG32(MCP_STATUS);
	if (status_reg & 0x4)
		res = ERR_MCP_ERROR;	// error happened
	else if (status_reg & 0x2)
 30020f4:	121f0021 	and	w1, w1, #0x2
		res = OK;	// MCP completed without error
	else
		res = ERR_UNKNOWN_TYPE;	// ???
 30020f8:	6b1f003f 	cmp	w1, wzr
 30020fc:	1a8013e0 	csel	w0, wzr, w0, ne
	print_hex(status_reg);
	prints("\n");
#endif

	// clear MCP register
	REG32(MCP_CTRL) = 0x2;
 3002100:	d28a2003 	mov	x3, #0x5100                	// #20736
 3002104:	f2b30023 	movk	x3, #0x9801, lsl #16
	REG32(MCP_STATUS) = 0x6;
 3002108:	d28a2081 	mov	x1, #0x5104                	// #20740
 300210c:	f2b30021 	movk	x1, #0x9801, lsl #16
	print_hex(status_reg);
	prints("\n");
#endif

	// clear MCP register
	REG32(MCP_CTRL) = 0x2;
 3002110:	52800044 	mov	w4, #0x2                   	// #2
	REG32(MCP_STATUS) = 0x6;
 3002114:	528000c2 	mov	w2, #0x6                   	// #6
	print_hex(status_reg);
	prints("\n");
#endif

	// clear MCP register
	REG32(MCP_CTRL) = 0x2;
 3002118:	b9000064 	str	w4, [x3]
	REG32(MCP_STATUS) = 0x6;
 300211c:	b9000022 	str	w2, [x1]
	return res;
}
 3002120:	f9400bfe 	ldr	x30, [sp,#16]
 3002124:	a8c353f3 	ldp	x19, x20, [sp],#48
 3002128:	d65f03c0 	ret
	REG32(MCP_RDPTR) = (uintptr_t)dscpt;
	REG32(MCP_WRPTR) = (uintptr_t)dscpt_addr + sizeof(t_mcp_descriptor);	// writer pointer cannot be equal to limit

	//mcp descriptor in sram
	if ((REG32(MCP_BASE) >= SRAM_BASE_PHY) && (REG32(MCP_BASE) <= SRAM_LAST_ADDR)) {
		REG32(MCP_DES_COUNT) = 0x80000000;
 300212c:	d28a2680 	mov	x0, #0x5134                	// #20788
 3002130:	f2b30020 	movk	x0, #0x9801, lsl #16
 3002134:	52b00001 	mov	w1, #0x80000000            	// #-2147483648
 3002138:	b9000001 	str	w1, [x0]
 300213c:	17ffffcb 	b	3002068 <do_mcp.constprop.0+0xc0>
	// go
	REG32(MCP_CTRL) = 0x3;
    	count = 0;
	while ((REG32(MCP_STATUS) & 0x6) == 0){
        if (count > 1000){
            REG32(MCP_CTRL) = 0x2;
 3002140:	d28a2003 	mov	x3, #0x5100                	// #20736
 3002144:	f2b30023 	movk	x3, #0x9801, lsl #16
 3002148:	52800044 	mov	w4, #0x2                   	// #2
	        REG32(MCP_STATUS) = 0x6;
 300214c:	528000c2 	mov	w2, #0x6                   	// #6
            return ERR_MCP_ERROR;
 3002150:	52800600 	mov	w0, #0x30                  	// #48
	// go
	REG32(MCP_CTRL) = 0x3;
    	count = 0;
	while ((REG32(MCP_STATUS) & 0x6) == 0){
        if (count > 1000){
            REG32(MCP_CTRL) = 0x2;
 3002154:	b9000064 	str	w4, [x3]
	        REG32(MCP_STATUS) = 0x6;
 3002158:	b9000022 	str	w2, [x1]
 300215c:	17fffff1 	b	3002120 <do_mcp.constprop.0+0x178>

0000000003002160 <AES_ECB_decrypt>:

/************************************************************************
 *  Implementation : Public functions
 ************************************************************************/
int AES_ECB_decrypt(UINT8 *src_addr, UINT32 length, UINT8 *dst_addr, UINT32 key[8], UINT32 padding, UINT32 key_cw_idx)
{
 3002160:	a9bb53f3 	stp	x19, x20, [sp,#-80]!
 3002164:	2a0103f3 	mov	w19, w1
 3002168:	aa0203f4 	mov	x20, x2
 300216c:	a9015bf5 	stp	x21, x22, [sp,#16]
 3002170:	a90263f7 	stp	x23, x24, [sp,#32]
 3002174:	f9001bfe 	str	x30, [sp,#48]
 3002178:	aa0003f5 	mov	x21, x0
 300217c:	aa0303f6 	mov	x22, x3
 3002180:	2a0503f8 	mov	w24, w5
	extern aesmode_t sys_aes_mode;

	if (length == 0)
 3002184:	350000e1 	cbnz	w1, 30021a0 <AES_ECB_decrypt+0x40>
	//dst address in sram
	if ((mcp_dscpt.dst_addr >= SRAM_BASE_PHY) && (mcp_dscpt.dst_addr <= SRAM_LAST_ADDR))
		mcp_dscpt.length =mcp_dscpt.length | 0x40000000;

	return do_mcp(&mcp_dscpt);
}
 3002188:	a9415bf5 	ldp	x21, x22, [sp,#16]
 300218c:	a94263f7 	ldp	x23, x24, [sp,#32]
 3002190:	f9401bfe 	ldr	x30, [sp,#48]
 3002194:	52801260 	mov	w0, #0x93                  	// #147
 3002198:	a8c553f3 	ldp	x19, x20, [sp],#80
 300219c:	d65f03c0 	ret

	if (length == 0)
		return ERR_INVALID_PARAM;

#ifdef ROM_DEBUG
	prints(__FUNCTION__);
 30021a0:	f0000020 	adrp	x0, 3009000 <el3_vectors>
 30021a4:	912c2000 	add	x0, x0, #0xb08
 30021a8:	b9004fe4 	str	w4, [sp,#76]
	prints("(");
	print_hex((UINT32)(uintptr_t)src_addr);
	prints(", ");
 30021ac:	f0000037 	adrp	x23, 3009000 <el3_vectors>
 30021b0:	913b82f7 	add	x23, x23, #0xee0

	if (length == 0)
		return ERR_INVALID_PARAM;

#ifdef ROM_DEBUG
	prints(__FUNCTION__);
 30021b4:	94000fc7 	bl	30060d0 <prints>
	prints("(");
 30021b8:	f0000020 	adrp	x0, 3009000 <el3_vectors>
 30021bc:	913b6000 	add	x0, x0, #0xed8
 30021c0:	94000fc4 	bl	30060d0 <prints>
	print_hex((UINT32)(uintptr_t)src_addr);
 30021c4:	2a1503e0 	mov	w0, w21
 30021c8:	94000ff4 	bl	3006198 <print_hex>
	prints(", ");
 30021cc:	aa1703e0 	mov	x0, x23
 30021d0:	94000fc0 	bl	30060d0 <prints>
	print_hex(length);
 30021d4:	2a1303e0 	mov	w0, w19
 30021d8:	94000ff0 	bl	3006198 <print_hex>
	prints(", ");
 30021dc:	aa1703e0 	mov	x0, x23
 30021e0:	94000fbc 	bl	30060d0 <prints>
	print_hex((UINT32)(uintptr_t)dst_addr);
 30021e4:	2a1403e0 	mov	w0, w20
 30021e8:	94000fec 	bl	3006198 <print_hex>
	prints(", ");
 30021ec:	aa1703e0 	mov	x0, x23
 30021f0:	94000fb8 	bl	30060d0 <prints>
	print_hex((UINT32)(uintptr_t)key);
 30021f4:	2a1603e0 	mov	w0, w22
 30021f8:	94000fe8 	bl	3006198 <print_hex>
	prints(", ");
 30021fc:	aa1703e0 	mov	x0, x23
 3002200:	94000fb4 	bl	30060d0 <prints>
	print_hex(padding);
 3002204:	b9404fe4 	ldr	w4, [sp,#76]
 3002208:	2a0403e0 	mov	w0, w4
 300220c:	94000fe3 	bl	3006198 <print_hex>
	prints(", ");
 3002210:	aa1703e0 	mov	x0, x23
 3002214:	94000faf 	bl	30060d0 <prints>
	print_hex(key_cw_idx);
 3002218:	2a1803e0 	mov	w0, w24
 300221c:	94000fdf 	bl	3006198 <print_hex>
	prints(")\n");
 3002220:	f0000020 	adrp	x0, 3009000 <el3_vectors>
 3002224:	91352000 	add	x0, x0, #0xd48
 3002228:	94000faa 	bl	30060d0 <prints>
	if (key != NULL) {
 300222c:	b4000896 	cbz	x22, 300233c <AES_ECB_decrypt+0x1dc>
		hexdump("AES key", (char *)key, 0x10);
 3002230:	f0000020 	adrp	x0, 3009000 <el3_vectors>
 3002234:	52800202 	mov	w2, #0x10                  	// #16
 3002238:	aa1603e1 	mov	x1, x22
 300223c:	913ba000 	add	x0, x0, #0xee8
 3002240:	94001517 	bl	300769c <hexdump>
	}
#endif

#ifdef ENABLE_MMU
	sys_dcache_flush_MVA((uintptr_t)src_addr, (uintptr_t)src_addr + length);
 3002244:	0b150261 	add	w1, w19, w21
 3002248:	2a1503e0 	mov	w0, w21
 300224c:	97fff780 	bl	300004c <sys_dcache_flush_MVA>
	if (dst_addr != src_addr) {
 3002250:	eb15029f 	cmp	x20, x21
 3002254:	54000c40 	b.eq	30023dc <AES_ECB_decrypt+0x27c>
		sys_dcache_flush_MVA((uintptr_t)dst_addr, (uintptr_t)dst_addr + length);
 3002258:	0b140261 	add	w1, w19, w20
 300225c:	2a1403e0 	mov	w0, w20
	}
#endif

	loopsTrap();
	set_memory(&mcp_dscpt, 0, sizeof(t_mcp_descriptor));
 3002260:	90000057 	adrp	x23, 300a000 <__FUNCTION__.3108+0x3d8>
#endif

#ifdef ENABLE_MMU
	sys_dcache_flush_MVA((uintptr_t)src_addr, (uintptr_t)src_addr + length);
	if (dst_addr != src_addr) {
		sys_dcache_flush_MVA((uintptr_t)dst_addr, (uintptr_t)dst_addr + length);
 3002264:	97fff77a 	bl	300004c <sys_dcache_flush_MVA>
	}
#endif

	loopsTrap();
 3002268:	94001556 	bl	30077c0 <loopsTrap>
	set_memory(&mcp_dscpt, 0, sizeof(t_mcp_descriptor));
 300226c:	52800702 	mov	w2, #0x38                  	// #56
 3002270:	52800001 	mov	w1, #0x0                   	// #0
 3002274:	9132c2e0 	add	x0, x23, #0xcb0
 3002278:	940013e1 	bl	30071fc <set_memory>
		//aes128
		mcp_dscpt.mode = (2 << 12) | (5 << 0);     // key from CW, aes128
		mcp_dscpt.key[0] = (key_cw_idx << 8);
	}
	//only aes128 can put everything at secure ram. other modes must put key at otp or cw or ddr
	else if (sys_aes_mode == AES_MODE_192)
 300227c:	90000040 	adrp	x0, 300a000 <__FUNCTION__.3108+0x3d8>
 3002280:	b9479000 	ldr	w0, [x0,#1936]
 3002284:	7100041f 	cmp	w0, #0x1
 3002288:	54000960 	b.eq	30023b4 <AES_ECB_decrypt+0x254>
        #else //key in ddr
		mcp_dscpt.mode = 0x301d;					// key at DDR , aes192
		mcp_dscpt.key[0] = (UINT32)key[0];
        #endif
	}
	else if ((sys_aes_mode == AES_MODE_256)||(sys_aes_mode == AES_MODE_256_1))
 300228c:	51000800 	sub	w0, w0, #0x2
 3002290:	7100041f 	cmp	w0, #0x1
		mcp_dscpt.mode = 0x2015;					// key from CW , aes256
		if (writeSRAM(0,key,4) == FALSE)		// write key from cw offset 0x00
			return ERR_WRITE_SRAM_FAIL;
		mcp_dscpt.key[0] = 0x00;
        #else
		mcp_dscpt.mode = 0x3015;					// key at ddr , aes256
 3002294:	9132c2e0 	add	x0, x23, #0xcb0
        #else //key in ddr
		mcp_dscpt.mode = 0x301d;					// key at DDR , aes192
		mcp_dscpt.key[0] = (UINT32)key[0];
        #endif
	}
	else if ((sys_aes_mode == AES_MODE_256)||(sys_aes_mode == AES_MODE_256_1))
 3002298:	540009a9 	b.ls	30023cc <AES_ECB_decrypt+0x26c>
	}
	else //aes 128
	{
		if (key == NULL)
			faultDetect();
		mcp_dscpt.mode = 0x5;						// key addr at descriptor word1-6, aes128
 300229c:	528000a1 	mov	w1, #0x5                   	// #5
 30022a0:	b90cb2e1 	str	w1, [x23,#3248]
		mcp_dscpt.key[0] = key[0];
 30022a4:	b94002c1 	ldr	w1, [x22]
 30022a8:	b9000401 	str	w1, [x0,#4]
		mcp_dscpt.key[1] = key[1];
 30022ac:	b94006c1 	ldr	w1, [x22,#4]
 30022b0:	b9000801 	str	w1, [x0,#8]
		mcp_dscpt.key[2] = key[2];
 30022b4:	b9400ac1 	ldr	w1, [x22,#8]
 30022b8:	b9000c01 	str	w1, [x0,#12]
		mcp_dscpt.key[3] = key[3];
 30022bc:	b9400ec1 	ldr	w1, [x22,#12]
 30022c0:	b9001001 	str	w1, [x0,#16]
	}
	mcp_dscpt.src_addr = (UINT32)(uintptr_t)src_addr;
 30022c4:	9132c2e1 	add	x1, x23, #0xcb0
 30022c8:	92407ea2 	and	x2, x21, #0xffffffff
	mcp_dscpt.dst_addr = (UINT32)(uintptr_t)dst_addr;
	mcp_dscpt.length = length;

	//src address in sram
	if ((mcp_dscpt.src_addr >= SRAM_BASE_PHY) && (mcp_dscpt.src_addr <= SRAM_LAST_ADDR))
 30022cc:	d03e7fe0 	adrp	x0, 80000000 <_sram>
 30022d0:	91000000 	add	x0, x0, #0x0
 30022d4:	eb00005f 	cmp	x2, x0
		mcp_dscpt.key[0] = key[0];
		mcp_dscpt.key[1] = key[1];
		mcp_dscpt.key[2] = key[2];
		mcp_dscpt.key[3] = key[3];
	}
	mcp_dscpt.src_addr = (UINT32)(uintptr_t)src_addr;
 30022d8:	b9002c35 	str	w21, [x1,#44]
	mcp_dscpt.dst_addr = (UINT32)(uintptr_t)dst_addr;
 30022dc:	b9003034 	str	w20, [x1,#48]
	mcp_dscpt.length = length;

	//src address in sram
	if ((mcp_dscpt.src_addr >= SRAM_BASE_PHY) && (mcp_dscpt.src_addr <= SRAM_LAST_ADDR))
 30022e0:	540000a3 	b.cc	30022f4 <AES_ECB_decrypt+0x194>
 30022e4:	91407c03 	add	x3, x0, #0x1f, lsl #12
 30022e8:	913ffc63 	add	x3, x3, #0xfff
 30022ec:	eb03005f 	cmp	x2, x3
 30022f0:	540004e9 	b.ls	300238c <AES_ECB_decrypt+0x22c>
		mcp_dscpt.key[2] = key[2];
		mcp_dscpt.key[3] = key[3];
	}
	mcp_dscpt.src_addr = (UINT32)(uintptr_t)src_addr;
	mcp_dscpt.dst_addr = (UINT32)(uintptr_t)dst_addr;
	mcp_dscpt.length = length;
 30022f4:	9132c2e1 	add	x1, x23, #0xcb0
 30022f8:	b9003433 	str	w19, [x1,#52]
 30022fc:	92407e94 	and	x20, x20, #0xffffffff

	//src address in sram
	if ((mcp_dscpt.src_addr >= SRAM_BASE_PHY) && (mcp_dscpt.src_addr <= SRAM_LAST_ADDR))
		mcp_dscpt.length = mcp_dscpt.length | 0x80000000;
	//dst address in sram
	if ((mcp_dscpt.dst_addr >= SRAM_BASE_PHY) && (mcp_dscpt.dst_addr <= SRAM_LAST_ADDR))
 3002300:	eb14001f 	cmp	x0, x20
 3002304:	54000128 	b.hi	3002328 <AES_ECB_decrypt+0x1c8>
 3002308:	91407c00 	add	x0, x0, #0x1f, lsl #12
 300230c:	913ffc00 	add	x0, x0, #0xfff
 3002310:	eb00029f 	cmp	x20, x0
 3002314:	540000a8 	b.hi	3002328 <AES_ECB_decrypt+0x1c8>
		mcp_dscpt.length =mcp_dscpt.length | 0x40000000;
 3002318:	9132c2f7 	add	x23, x23, #0xcb0
 300231c:	b94036e0 	ldr	w0, [x23,#52]
 3002320:	32020000 	orr	w0, w0, #0x40000000
 3002324:	b90036e0 	str	w0, [x23,#52]

	return do_mcp(&mcp_dscpt);
}
 3002328:	a9415bf5 	ldp	x21, x22, [sp,#16]
 300232c:	a94263f7 	ldp	x23, x24, [sp,#32]
 3002330:	f9401bfe 	ldr	x30, [sp,#48]
 3002334:	a8c553f3 	ldp	x19, x20, [sp],#80
		mcp_dscpt.length = mcp_dscpt.length | 0x80000000;
	//dst address in sram
	if ((mcp_dscpt.dst_addr >= SRAM_BASE_PHY) && (mcp_dscpt.dst_addr <= SRAM_LAST_ADDR))
		mcp_dscpt.length =mcp_dscpt.length | 0x40000000;

	return do_mcp(&mcp_dscpt);
 3002338:	17ffff1c 	b	3001fa8 <do_mcp.constprop.0>
		hexdump("AES key", (char *)key, 0x10);
	}
#endif

#ifdef ENABLE_MMU
	sys_dcache_flush_MVA((uintptr_t)src_addr, (uintptr_t)src_addr + length);
 300233c:	0b150261 	add	w1, w19, w21
 3002340:	2a1503e0 	mov	w0, w21
 3002344:	97fff742 	bl	300004c <sys_dcache_flush_MVA>
	if (dst_addr != src_addr) {
 3002348:	eb15029f 	cmp	x20, x21
 300234c:	54000260 	b.eq	3002398 <AES_ECB_decrypt+0x238>
		sys_dcache_flush_MVA((uintptr_t)dst_addr, (uintptr_t)dst_addr + length);
 3002350:	0b140261 	add	w1, w19, w20
 3002354:	2a1403e0 	mov	w0, w20
	}
#endif

	loopsTrap();
	set_memory(&mcp_dscpt, 0, sizeof(t_mcp_descriptor));
 3002358:	90000057 	adrp	x23, 300a000 <__FUNCTION__.3108+0x3d8>
#endif

#ifdef ENABLE_MMU
	sys_dcache_flush_MVA((uintptr_t)src_addr, (uintptr_t)src_addr + length);
	if (dst_addr != src_addr) {
		sys_dcache_flush_MVA((uintptr_t)dst_addr, (uintptr_t)dst_addr + length);
 300235c:	97fff73c 	bl	300004c <sys_dcache_flush_MVA>
	}
#endif

	loopsTrap();
 3002360:	94001518 	bl	30077c0 <loopsTrap>
	set_memory(&mcp_dscpt, 0, sizeof(t_mcp_descriptor));
 3002364:	52800702 	mov	w2, #0x38                  	// #56
 3002368:	52800001 	mov	w1, #0x0                   	// #0
 300236c:	9132c2e0 	add	x0, x23, #0xcb0
 3002370:	940013a3 	bl	30071fc <set_memory>

	if (key == NULL) {
		//aes128
		mcp_dscpt.mode = (2 << 12) | (5 << 0);     // key from CW, aes128
 3002374:	9132c2e0 	add	x0, x23, #0xcb0
		mcp_dscpt.key[0] = (key_cw_idx << 8);
 3002378:	53185f18 	lsl	w24, w24, #8
	loopsTrap();
	set_memory(&mcp_dscpt, 0, sizeof(t_mcp_descriptor));

	if (key == NULL) {
		//aes128
		mcp_dscpt.mode = (2 << 12) | (5 << 0);     // key from CW, aes128
 300237c:	528400a1 	mov	w1, #0x2005                	// #8197
 3002380:	b90cb2e1 	str	w1, [x23,#3248]
		mcp_dscpt.key[0] = (key_cw_idx << 8);
 3002384:	b9000418 	str	w24, [x0,#4]
 3002388:	17ffffcf 	b	30022c4 <AES_ECB_decrypt+0x164>
	mcp_dscpt.dst_addr = (UINT32)(uintptr_t)dst_addr;
	mcp_dscpt.length = length;

	//src address in sram
	if ((mcp_dscpt.src_addr >= SRAM_BASE_PHY) && (mcp_dscpt.src_addr <= SRAM_LAST_ADDR))
		mcp_dscpt.length = mcp_dscpt.length | 0x80000000;
 300238c:	32010273 	orr	w19, w19, #0x80000000
 3002390:	b9003433 	str	w19, [x1,#52]
 3002394:	17ffffda 	b	30022fc <AES_ECB_decrypt+0x19c>
	if (dst_addr != src_addr) {
		sys_dcache_flush_MVA((uintptr_t)dst_addr, (uintptr_t)dst_addr + length);
	}
#endif

	loopsTrap();
 3002398:	9400150a 	bl	30077c0 <loopsTrap>
	set_memory(&mcp_dscpt, 0, sizeof(t_mcp_descriptor));
 300239c:	90000057 	adrp	x23, 300a000 <__FUNCTION__.3108+0x3d8>
 30023a0:	52800702 	mov	w2, #0x38                  	// #56
 30023a4:	52800001 	mov	w1, #0x0                   	// #0
 30023a8:	9132c2e0 	add	x0, x23, #0xcb0
 30023ac:	94001394 	bl	30071fc <set_memory>
 30023b0:	17fffff1 	b	3002374 <AES_ECB_decrypt+0x214>
		mcp_dscpt.mode = 0x201d;					// key from CW , aes192
		if (writeSRAM(0,key,3) == FALSE)		// write key from cw offset 0x00
			return ERR_WRITE_SRAM_FAIL;
		mcp_dscpt.key[0] = 0x00;
        #else //key in ddr
		mcp_dscpt.mode = 0x301d;					// key at DDR , aes192
 30023b4:	528603a1 	mov	w1, #0x301d                	// #12317
 30023b8:	9132c2e0 	add	x0, x23, #0xcb0
 30023bc:	b90cb2e1 	str	w1, [x23,#3248]
		mcp_dscpt.key[0] = (UINT32)key[0];
 30023c0:	b94002c1 	ldr	w1, [x22]
 30023c4:	b9000401 	str	w1, [x0,#4]
 30023c8:	17ffffbf 	b	30022c4 <AES_ECB_decrypt+0x164>
		mcp_dscpt.mode = 0x2015;					// key from CW , aes256
		if (writeSRAM(0,key,4) == FALSE)		// write key from cw offset 0x00
			return ERR_WRITE_SRAM_FAIL;
		mcp_dscpt.key[0] = 0x00;
        #else
		mcp_dscpt.mode = 0x3015;					// key at ddr , aes256
 30023cc:	528602a1 	mov	w1, #0x3015                	// #12309
		mcp_dscpt.key[0] = (uintptr_t)key;
 30023d0:	b9000416 	str	w22, [x0,#4]
		mcp_dscpt.mode = 0x2015;					// key from CW , aes256
		if (writeSRAM(0,key,4) == FALSE)		// write key from cw offset 0x00
			return ERR_WRITE_SRAM_FAIL;
		mcp_dscpt.key[0] = 0x00;
        #else
		mcp_dscpt.mode = 0x3015;					// key at ddr , aes256
 30023d4:	b90cb2e1 	str	w1, [x23,#3248]
 30023d8:	17ffffbb 	b	30022c4 <AES_ECB_decrypt+0x164>
	if (dst_addr != src_addr) {
		sys_dcache_flush_MVA((uintptr_t)dst_addr, (uintptr_t)dst_addr + length);
	}
#endif

	loopsTrap();
 30023dc:	940014f9 	bl	30077c0 <loopsTrap>
	set_memory(&mcp_dscpt, 0, sizeof(t_mcp_descriptor));
 30023e0:	90000057 	adrp	x23, 300a000 <__FUNCTION__.3108+0x3d8>
 30023e4:	52800702 	mov	w2, #0x38                  	// #56
 30023e8:	52800001 	mov	w1, #0x0                   	// #0
 30023ec:	9132c2e0 	add	x0, x23, #0xcb0
 30023f0:	94001383 	bl	30071fc <set_memory>
 30023f4:	17ffffa2 	b	300227c <AES_ECB_decrypt+0x11c>

00000000030023f8 <SHA256_hash>:
	return do_mcp(&mcp_dscpt);
}


int SHA256_hash(UINT8 *src_addr, INT32 length, UINT8 *dst_addr, UINT32 iv[8], UINT8 hw_padding)
{
 30023f8:	a9bb53f3 	stp	x19, x20, [sp,#-80]!

	if ((src_addr == NULL) || (dst_addr == NULL) || (length <= 0))
 30023fc:	eb1f005f 	cmp	x2, xzr
	return do_mcp(&mcp_dscpt);
}


int SHA256_hash(UINT8 *src_addr, INT32 length, UINT8 *dst_addr, UINT32 iv[8], UINT8 hw_padding)
{
 3002400:	2a0103f4 	mov	w20, w1

	if ((src_addr == NULL) || (dst_addr == NULL) || (length <= 0))
 3002404:	1a9f17e1 	cset	w1, eq
 3002408:	6b1f029f 	cmp	w20, wzr
	return do_mcp(&mcp_dscpt);
}


int SHA256_hash(UINT8 *src_addr, INT32 length, UINT8 *dst_addr, UINT32 iv[8], UINT8 hw_padding)
{
 300240c:	a9015bf5 	stp	x21, x22, [sp,#16]
 3002410:	aa0003f5 	mov	x21, x0

	if ((src_addr == NULL) || (dst_addr == NULL) || (length <= 0))
 3002414:	1a9fc7e0 	cset	w0, le
	return do_mcp(&mcp_dscpt);
}


int SHA256_hash(UINT8 *src_addr, INT32 length, UINT8 *dst_addr, UINT32 iv[8], UINT8 hw_padding)
{
 3002418:	a90263f7 	stp	x23, x24, [sp,#32]
 300241c:	a9036bf9 	stp	x25, x26, [sp,#48]
 3002420:	f90023fe 	str	x30, [sp,#64]

	if ((src_addr == NULL) || (dst_addr == NULL) || (length <= 0))
 3002424:	2a000020 	orr	w0, w1, w0
	return do_mcp(&mcp_dscpt);
}


int SHA256_hash(UINT8 *src_addr, INT32 length, UINT8 *dst_addr, UINT32 iv[8], UINT8 hw_padding)
{
 3002428:	aa0203f3 	mov	x19, x2
 300242c:	aa0303f6 	mov	x22, x3
 3002430:	53001c97 	uxtb	w23, w4

	if ((src_addr == NULL) || (dst_addr == NULL) || (length <= 0))
 3002434:	35000c60 	cbnz	w0, 30025c0 <SHA256_hash+0x1c8>
 3002438:	b4000c55 	cbz	x21, 30025c0 <SHA256_hash+0x1c8>
		return ERR_INVALID_PARAM;


#ifdef ROM_DEBUG
	prints(__FUNCTION__);
 300243c:	f0000020 	adrp	x0, 3009000 <el3_vectors>
 3002440:	912c2000 	add	x0, x0, #0xb08
 3002444:	91004000 	add	x0, x0, #0x10
	prints("(");
	print_hex((UINT32)(uintptr_t)src_addr);
	prints(", ");
 3002448:	f0000039 	adrp	x25, 3009000 <el3_vectors>
 300244c:	913b8339 	add	x25, x25, #0xee0
	if ((src_addr == NULL) || (dst_addr == NULL) || (length <= 0))
		return ERR_INVALID_PARAM;


#ifdef ROM_DEBUG
	prints(__FUNCTION__);
 3002450:	94000f20 	bl	30060d0 <prints>
	prints(", ");
	print_hex((UINT32) hw_padding);
	prints(")\n");
#endif

	set_memory(&mcp_dscpt, 0, sizeof(t_mcp_descriptor));
 3002454:	9000005a 	adrp	x26, 300a000 <__FUNCTION__.3108+0x3d8>
 3002458:	9132c358 	add	x24, x26, #0xcb0
		return ERR_INVALID_PARAM;


#ifdef ROM_DEBUG
	prints(__FUNCTION__);
	prints("(");
 300245c:	f0000020 	adrp	x0, 3009000 <el3_vectors>
 3002460:	913b6000 	add	x0, x0, #0xed8
 3002464:	94000f1b 	bl	30060d0 <prints>
	print_hex((UINT32)(uintptr_t)src_addr);
 3002468:	2a1503e0 	mov	w0, w21
 300246c:	94000f4b 	bl	3006198 <print_hex>
	prints(", ");
 3002470:	aa1903e0 	mov	x0, x25
 3002474:	94000f17 	bl	30060d0 <prints>
	print_hex(length);
 3002478:	2a1403e0 	mov	w0, w20
 300247c:	94000f47 	bl	3006198 <print_hex>
	prints(", ");
 3002480:	aa1903e0 	mov	x0, x25
 3002484:	94000f13 	bl	30060d0 <prints>
	print_hex((UINT32)(uintptr_t)dst_addr);
 3002488:	2a1303e0 	mov	w0, w19
 300248c:	94000f43 	bl	3006198 <print_hex>
	prints(", ");
 3002490:	aa1903e0 	mov	x0, x25
 3002494:	94000f0f 	bl	30060d0 <prints>
	print_hex((UINT32)(uintptr_t)iv);
 3002498:	2a1603e0 	mov	w0, w22
 300249c:	94000f3f 	bl	3006198 <print_hex>
	prints(", ");
 30024a0:	aa1903e0 	mov	x0, x25
 30024a4:	94000f0b 	bl	30060d0 <prints>
	print_hex((UINT32) hw_padding);
 30024a8:	2a1703e0 	mov	w0, w23
 30024ac:	94000f3b 	bl	3006198 <print_hex>
	prints(")\n");
 30024b0:	f0000020 	adrp	x0, 3009000 <el3_vectors>
 30024b4:	91352000 	add	x0, x0, #0xd48
 30024b8:	94000f06 	bl	30060d0 <prints>
#endif

	set_memory(&mcp_dscpt, 0, sizeof(t_mcp_descriptor));
 30024bc:	aa1803e0 	mov	x0, x24
 30024c0:	52800702 	mov	w2, #0x38                  	// #56
 30024c4:	52800001 	mov	w1, #0x0                   	// #0
 30024c8:	9400134d 	bl	30071fc <set_memory>
	mcp_dscpt.mode = 0xb;
 30024cc:	52800160 	mov	w0, #0xb                   	// #11
 30024d0:	b90cb340 	str	w0, [x26,#3248]

	if (iv == NULL) {
 30024d4:	b40009b6 	cbz	x22, 3002608 <SHA256_hash+0x210>
		mcp_dscpt.key[5] = SHA256_H5;
		mcp_dscpt.ini_key[0] = SHA256_H6;
		mcp_dscpt.ini_key[1] = SHA256_H7;
	}
	else {
		mcp_dscpt.key[0] = iv[0];
 30024d8:	b94002c0 	ldr	w0, [x22]
 30024dc:	b9000700 	str	w0, [x24,#4]
		mcp_dscpt.key[1] = iv[1];
 30024e0:	b94006c0 	ldr	w0, [x22,#4]
 30024e4:	b9000b00 	str	w0, [x24,#8]
		mcp_dscpt.key[2] = iv[2];
 30024e8:	b9400ac0 	ldr	w0, [x22,#8]
 30024ec:	b9000f00 	str	w0, [x24,#12]
		mcp_dscpt.key[3] = iv[3];
 30024f0:	b9400ec0 	ldr	w0, [x22,#12]
 30024f4:	b9001300 	str	w0, [x24,#16]
		mcp_dscpt.key[4] = iv[4];
 30024f8:	b94012c0 	ldr	w0, [x22,#16]
 30024fc:	b9001700 	str	w0, [x24,#20]
		mcp_dscpt.key[5] = iv[5];
 3002500:	b94016c0 	ldr	w0, [x22,#20]
 3002504:	b9001b00 	str	w0, [x24,#24]
		mcp_dscpt.ini_key[0] = iv[6];
 3002508:	b9401ac0 	ldr	w0, [x22,#24]
 300250c:	b9001f00 	str	w0, [x24,#28]
		mcp_dscpt.ini_key[1] = iv[7];
 3002510:	b9401ec0 	ldr	w0, [x22,#28]
 3002514:	b9002300 	str	w0, [x24,#32]
	}

	mcp_dscpt.src_addr = (UINT32)(uintptr_t)src_addr;
 3002518:	9132c341 	add	x1, x26, #0xcb0
 300251c:	92407ea2 	and	x2, x21, #0xffffffff
	mcp_dscpt.dst_addr = (UINT32)(uintptr_t)dst_addr;
	mcp_dscpt.length = length;

	//src address in sram
	if ((mcp_dscpt.src_addr >= SRAM_BASE_PHY) && (mcp_dscpt.src_addr <= SRAM_LAST_ADDR))
 3002520:	d03e7fe0 	adrp	x0, 80000000 <_sram>
 3002524:	91000000 	add	x0, x0, #0x0
 3002528:	eb00005f 	cmp	x2, x0
		mcp_dscpt.key[5] = iv[5];
		mcp_dscpt.ini_key[0] = iv[6];
		mcp_dscpt.ini_key[1] = iv[7];
	}

	mcp_dscpt.src_addr = (UINT32)(uintptr_t)src_addr;
 300252c:	b9002c35 	str	w21, [x1,#44]
	mcp_dscpt.dst_addr = (UINT32)(uintptr_t)dst_addr;
 3002530:	b9003033 	str	w19, [x1,#48]
	mcp_dscpt.length = length;

	//src address in sram
	if ((mcp_dscpt.src_addr >= SRAM_BASE_PHY) && (mcp_dscpt.src_addr <= SRAM_LAST_ADDR))
 3002534:	540000a3 	b.cc	3002548 <SHA256_hash+0x150>
 3002538:	91407c03 	add	x3, x0, #0x1f, lsl #12
 300253c:	913ffc63 	add	x3, x3, #0xfff
 3002540:	eb03005f 	cmp	x2, x3
 3002544:	540005c9 	b.ls	30025fc <SHA256_hash+0x204>
		mcp_dscpt.ini_key[1] = iv[7];
	}

	mcp_dscpt.src_addr = (UINT32)(uintptr_t)src_addr;
	mcp_dscpt.dst_addr = (UINT32)(uintptr_t)dst_addr;
	mcp_dscpt.length = length;
 3002548:	9132c341 	add	x1, x26, #0xcb0
 300254c:	b9003434 	str	w20, [x1,#52]
 3002550:	92407e61 	and	x1, x19, #0xffffffff

	//src address in sram
	if ((mcp_dscpt.src_addr >= SRAM_BASE_PHY) && (mcp_dscpt.src_addr <= SRAM_LAST_ADDR))
		mcp_dscpt.length = mcp_dscpt.length | 0x80000000;
	//dst address in sram
	if ((mcp_dscpt.dst_addr >= SRAM_BASE_PHY) && (mcp_dscpt.dst_addr <= SRAM_LAST_ADDR))
 3002554:	eb01001f 	cmp	x0, x1
 3002558:	540000a8 	b.hi	300256c <SHA256_hash+0x174>
 300255c:	91407c00 	add	x0, x0, #0x1f, lsl #12
 3002560:	913ffc00 	add	x0, x0, #0xfff
 3002564:	eb00003f 	cmp	x1, x0
 3002568:	54000409 	b.ls	30025e8 <SHA256_hash+0x1f0>
		mcp_dscpt.length = mcp_dscpt.length | 0x40000000;

#ifdef ENABLE_MMU
	sys_dcache_flush_MVA((UINT32)(uintptr_t)src_addr, (UINT32)(uintptr_t)src_addr + length);
 300256c:	0b150281 	add	w1, w20, w21
 3002570:	2a1503e0 	mov	w0, w21
 3002574:	97fff6b6 	bl	300004c <sys_dcache_flush_MVA>
	sys_dcache_flush_MVA((UINT32)(uintptr_t)dst_addr, (UINT32)(uintptr_t)dst_addr + length);
 3002578:	0b130281 	add	w1, w20, w19
 300257c:	2a1303e0 	mov	w0, w19
 3002580:	97fff6b3 	bl	300004c <sys_dcache_flush_MVA>
	sys_dcache_flush_MVA((UINT32)(uintptr_t)iv, (UINT32)(uintptr_t)iv + sizeof(UINT32)*8);
 3002584:	110082c1 	add	w1, w22, #0x20
 3002588:	2a1603e0 	mov	w0, w22
 300258c:	97fff6b0 	bl	300004c <sys_dcache_flush_MVA>
#endif

	if (hw_padding) {
		REG32(MCP_CTRL1) &= (UINT32)~0x800;
 3002590:	d28a3301 	mov	x1, #0x5198                	// #20888
 3002594:	f2b30021 	movk	x1, #0x9801, lsl #16
 3002598:	b9400020 	ldr	w0, [x1]
	sys_dcache_flush_MVA((UINT32)(uintptr_t)src_addr, (UINT32)(uintptr_t)src_addr + length);
	sys_dcache_flush_MVA((UINT32)(uintptr_t)dst_addr, (UINT32)(uintptr_t)dst_addr + length);
	sys_dcache_flush_MVA((UINT32)(uintptr_t)iv, (UINT32)(uintptr_t)iv + sizeof(UINT32)*8);
#endif

	if (hw_padding) {
 300259c:	34000217 	cbz	w23, 30025dc <SHA256_hash+0x1e4>
		REG32(MCP_CTRL1) &= (UINT32)~0x800;
 30025a0:	12147800 	and	w0, w0, #0xfffff7ff
 30025a4:	b9000020 	str	w0, [x1]
	else {
		REG32(MCP_CTRL1) |= (UINT32)0x800;
	}

	return do_mcp(&mcp_dscpt);
}
 30025a8:	a9415bf5 	ldp	x21, x22, [sp,#16]
 30025ac:	a94263f7 	ldp	x23, x24, [sp,#32]
 30025b0:	a9436bf9 	ldp	x25, x26, [sp,#48]
 30025b4:	f94023fe 	ldr	x30, [sp,#64]
 30025b8:	a8c553f3 	ldp	x19, x20, [sp],#80
	}
	else {
		REG32(MCP_CTRL1) |= (UINT32)0x800;
	}

	return do_mcp(&mcp_dscpt);
 30025bc:	17fffe7b 	b	3001fa8 <do_mcp.constprop.0>
}
 30025c0:	52801260 	mov	w0, #0x93                  	// #147
 30025c4:	f94023fe 	ldr	x30, [sp,#64]
 30025c8:	a9415bf5 	ldp	x21, x22, [sp,#16]
 30025cc:	a94263f7 	ldp	x23, x24, [sp,#32]
 30025d0:	a9436bf9 	ldp	x25, x26, [sp,#48]
 30025d4:	a8c553f3 	ldp	x19, x20, [sp],#80
 30025d8:	d65f03c0 	ret

	if (hw_padding) {
		REG32(MCP_CTRL1) &= (UINT32)~0x800;
	}
	else {
		REG32(MCP_CTRL1) |= (UINT32)0x800;
 30025dc:	32150000 	orr	w0, w0, #0x800
 30025e0:	b9000020 	str	w0, [x1]
 30025e4:	17fffff1 	b	30025a8 <SHA256_hash+0x1b0>
	//src address in sram
	if ((mcp_dscpt.src_addr >= SRAM_BASE_PHY) && (mcp_dscpt.src_addr <= SRAM_LAST_ADDR))
		mcp_dscpt.length = mcp_dscpt.length | 0x80000000;
	//dst address in sram
	if ((mcp_dscpt.dst_addr >= SRAM_BASE_PHY) && (mcp_dscpt.dst_addr <= SRAM_LAST_ADDR))
		mcp_dscpt.length = mcp_dscpt.length | 0x40000000;
 30025e8:	9132c35a 	add	x26, x26, #0xcb0
 30025ec:	b9403740 	ldr	w0, [x26,#52]
 30025f0:	32020000 	orr	w0, w0, #0x40000000
 30025f4:	b9003740 	str	w0, [x26,#52]
 30025f8:	17ffffdd 	b	300256c <SHA256_hash+0x174>
	mcp_dscpt.dst_addr = (UINT32)(uintptr_t)dst_addr;
	mcp_dscpt.length = length;

	//src address in sram
	if ((mcp_dscpt.src_addr >= SRAM_BASE_PHY) && (mcp_dscpt.src_addr <= SRAM_LAST_ADDR))
		mcp_dscpt.length = mcp_dscpt.length | 0x80000000;
 30025fc:	32010282 	orr	w2, w20, #0x80000000
 3002600:	b9003422 	str	w2, [x1,#52]
 3002604:	17ffffd3 	b	3002550 <SHA256_hash+0x158>
	set_memory(&mcp_dscpt, 0, sizeof(t_mcp_descriptor));
	mcp_dscpt.mode = 0xb;

	if (iv == NULL) {
		mcp_dscpt.key[0] = SHA256_H0;
		mcp_dscpt.key[1] = SHA256_H1;
 3002608:	5295d0a0 	mov	w0, #0xae85                	// #44677
 300260c:	72b76ce0 	movk	w0, #0xbb67, lsl #16
 3002610:	b9000b00 	str	w0, [x24,#8]
		mcp_dscpt.key[2] = SHA256_H2;
		mcp_dscpt.key[3] = SHA256_H3;
 3002614:	529ea740 	mov	w0, #0xf53a                	// #62778
 3002618:	72b4a9e0 	movk	w0, #0xa54f, lsl #16
 300261c:	b9001300 	str	w0, [x24,#16]

	set_memory(&mcp_dscpt, 0, sizeof(t_mcp_descriptor));
	mcp_dscpt.mode = 0xb;

	if (iv == NULL) {
		mcp_dscpt.key[0] = SHA256_H0;
 3002620:	529ccce2 	mov	w2, #0xe667                	// #58983
 3002624:	72ad4122 	movk	w2, #0x6a09, lsl #16
		mcp_dscpt.key[1] = SHA256_H1;
		mcp_dscpt.key[2] = SHA256_H2;
 3002628:	529e6e41 	mov	w1, #0xf372                	// #62322
 300262c:	72a78dc1 	movk	w1, #0x3c6e, lsl #16
		mcp_dscpt.key[3] = SHA256_H3;
		mcp_dscpt.key[4] = SHA256_H4;
		mcp_dscpt.key[5] = SHA256_H5;
 3002630:	528d1180 	mov	w0, #0x688c                	// #26764
 3002634:	72b360a0 	movk	w0, #0x9b05, lsl #16

	set_memory(&mcp_dscpt, 0, sizeof(t_mcp_descriptor));
	mcp_dscpt.mode = 0xb;

	if (iv == NULL) {
		mcp_dscpt.key[0] = SHA256_H0;
 3002638:	b9000702 	str	w2, [x24,#4]
		mcp_dscpt.key[1] = SHA256_H1;
		mcp_dscpt.key[2] = SHA256_H2;
		mcp_dscpt.key[3] = SHA256_H3;
		mcp_dscpt.key[4] = SHA256_H4;
 300263c:	528a4fe2 	mov	w2, #0x527f                	// #21119
 3002640:	72aa21c2 	movk	w2, #0x510e, lsl #16
 3002644:	b9001702 	str	w2, [x24,#20]
	mcp_dscpt.mode = 0xb;

	if (iv == NULL) {
		mcp_dscpt.key[0] = SHA256_H0;
		mcp_dscpt.key[1] = SHA256_H1;
		mcp_dscpt.key[2] = SHA256_H2;
 3002648:	b9000f01 	str	w1, [x24,#12]
		mcp_dscpt.key[3] = SHA256_H3;
		mcp_dscpt.key[4] = SHA256_H4;
		mcp_dscpt.key[5] = SHA256_H5;
		mcp_dscpt.ini_key[0] = SHA256_H6;
 300264c:	529b3561 	mov	w1, #0xd9ab                	// #55723
 3002650:	72a3f061 	movk	w1, #0x1f83, lsl #16
 3002654:	b9001f01 	str	w1, [x24,#28]
		mcp_dscpt.key[0] = SHA256_H0;
		mcp_dscpt.key[1] = SHA256_H1;
		mcp_dscpt.key[2] = SHA256_H2;
		mcp_dscpt.key[3] = SHA256_H3;
		mcp_dscpt.key[4] = SHA256_H4;
		mcp_dscpt.key[5] = SHA256_H5;
 3002658:	b9001b00 	str	w0, [x24,#24]
		mcp_dscpt.ini_key[0] = SHA256_H6;
		mcp_dscpt.ini_key[1] = SHA256_H7;
 300265c:	5299a320 	mov	w0, #0xcd19                	// #52505
 3002660:	72ab7c00 	movk	w0, #0x5be0, lsl #16
 3002664:	b9002300 	str	w0, [x24,#32]
 3002668:	17ffffac 	b	3002518 <SHA256_hash+0x120>

000000000300266c <nf_is_6bit_ecc>:
	}
}

static unsigned int nf_is_6bit_ecc(void)
{
    return ((REG32(NF_ECC_SEL) & 0xF) == 0);
 300266c:	d2802500 	mov	x0, #0x128                 	// #296
 3002670:	f2b30020 	movk	x0, #0x9801, lsl #16
 3002674:	b9400000 	ldr	w0, [x0]
 3002678:	12000c00 	and	w0, w0, #0xf
 300267c:	6b1f001f 	cmp	w0, wzr
}
 3002680:	1a9f17e0 	cset	w0, eq
 3002684:	d65f03c0 	ret

0000000003002688 <nf_is_12bit_ecc>:

static unsigned int nf_is_12bit_ecc(void)
{
    return ((REG32(NF_ECC_SEL) & 0xF) == 1);
 3002688:	d2802500 	mov	x0, #0x128                 	// #296
 300268c:	f2b30020 	movk	x0, #0x9801, lsl #16
 3002690:	b9400000 	ldr	w0, [x0]
 3002694:	12000c00 	and	w0, w0, #0xf
 3002698:	7100041f 	cmp	w0, #0x1
}
 300269c:	1a9f17e0 	cset	w0, eq
 30026a0:	d65f03c0 	ret

00000000030026a4 <addr_secure_ram>:
}

static int addr_secure_ram(unsigned int addr)
{
	return (addr & 0x80000000);
}
 30026a4:	12010000 	and	w0, w0, #0x80000000
 30026a8:	d65f03c0 	ret

00000000030026ac <wait_done>:
	return 0;
}

static void wait_done(unsigned int addr, unsigned int mask, unsigned int value)
{
	while ((REG32(addr)& mask) != value) {
 30026ac:	2a0003e0 	mov	w0, w0
 30026b0:	b9400003 	ldr	w3, [x0]
 30026b4:	0a010063 	and	w3, w3, w1
 30026b8:	6b02007f 	cmp	w3, w2
 30026bc:	540000c0 	b.eq	30026d4 <wait_done+0x28>
		asm("nop");
 30026c0:	d503201f 	nop
	return 0;
}

static void wait_done(unsigned int addr, unsigned int mask, unsigned int value)
{
	while ((REG32(addr)& mask) != value) {
 30026c4:	b9400003 	ldr	w3, [x0]
 30026c8:	0a010063 	and	w3, w3, w1
 30026cc:	6b02007f 	cmp	w3, w2
 30026d0:	54ffff81 	b.ne	30026c0 <wait_done+0x14>
		asm("nop");
	}
}
 30026d4:	d65f03c0 	ret

00000000030026d8 <nf_reset>:
/*
 * issue RESET command to nand flash
 */
static int nf_reset(void)
{
	REG32(NF_CHIP_EN) = NAND_CHIP_SELECT;
 30026d8:	d2802602 	mov	x2, #0x130                 	// #304
 30026dc:	f2b30022 	movk	x2, #0x9801, lsl #16

	#ifdef NF_DEBUG
	rom_debug_val("NAND_CHIP_SELECT", NAND_CHIP_SELECT);
	#endif

	REG32(NF_T3) = 0x2;
 30026e0:	d2804681 	mov	x1, #0x234                 	// #564
 30026e4:	f2b30021 	movk	x1, #0x9801, lsl #16

/*
 * issue RESET command to nand flash
 */
static int nf_reset(void)
{
 30026e8:	f81f0ffe 	str	x30, [sp,#-16]!
	#ifdef NF_DEBUG
	rom_debug_val("NAND_CHIP_SELECT", NAND_CHIP_SELECT);
	#endif

	REG32(NF_T3) = 0x2;
	REG32(NF_T2) = 0x5;
 30026ec:	d2804704 	mov	x4, #0x238                 	// #568
 30026f0:	f2b30024 	movk	x4, #0x9801, lsl #16
/*
 * issue RESET command to nand flash
 */
static int nf_reset(void)
{
	REG32(NF_CHIP_EN) = NAND_CHIP_SELECT;
 30026f4:	528003c5 	mov	w5, #0x1e                  	// #30
	rom_debug_val("NAND_CHIP_SELECT", NAND_CHIP_SELECT);
	#endif

	REG32(NF_T3) = 0x2;
	REG32(NF_T2) = 0x5;
	REG32(NF_T1) = 0x2;
 30026f8:	d2804783 	mov	x3, #0x23c                 	// #572
 30026fc:	f2b30023 	movk	x3, #0x9801, lsl #16
/*
 * issue RESET command to nand flash
 */
static int nf_reset(void)
{
	REG32(NF_CHIP_EN) = NAND_CHIP_SELECT;
 3002700:	b9000045 	str	w5, [x2]

	#ifdef NF_DEBUG
	rom_debug_val("NAND_CHIP_SELECT", NAND_CHIP_SELECT);
	#endif

	REG32(NF_T3) = 0x2;
 3002704:	52800040 	mov	w0, #0x2                   	// #2
 3002708:	b9000020 	str	w0, [x1]
	REG32(NF_T2) = 0x5;
 300270c:	528000a5 	mov	w5, #0x5                   	// #5
	REG32(NF_T1) = 0x2;

	//REG32(NF_MULTI_CH_MODE) = 0x20;
	REG32(NF_MULTI_CH_MODE) = 0x0;
	REG32(NF_PP_RDY) = 0x0;
 3002710:	d2804501 	mov	x1, #0x228                 	// #552
 3002714:	f2b30021 	movk	x1, #0x9801, lsl #16
	#ifdef NF_DEBUG
	rom_debug_val("NAND_CHIP_SELECT", NAND_CHIP_SELECT);
	#endif

	REG32(NF_T3) = 0x2;
	REG32(NF_T2) = 0x5;
 3002718:	b9000085 	str	w5, [x4]
	REG32(NF_T1) = 0x2;
 300271c:	b9000060 	str	w0, [x3]
	//REG32(NF_MULTI_CH_MODE) = 0x20;
	REG32(NF_MULTI_CH_MODE) = 0x0;
	REG32(NF_PP_RDY) = 0x0;

	// set 'reset' command
	REG32(NF_CMD1) = 0xff;
 3002720:	d2800200 	mov	x0, #0x10                  	// #16
 3002724:	f2b30020 	movk	x0, #0x9801, lsl #16
	REG32(NF_T3) = 0x2;
	REG32(NF_T2) = 0x5;
	REG32(NF_T1) = 0x2;

	//REG32(NF_MULTI_CH_MODE) = 0x20;
	REG32(NF_MULTI_CH_MODE) = 0x0;
 3002728:	b9014c5f 	str	wzr, [x2,#332]

	// set 'reset' command
	REG32(NF_CMD1) = 0xff;

	// issue command
	REG32(NF_ND_CTL) = 0x80;
 300272c:	d2800302 	mov	x2, #0x18                  	// #24
 3002730:	f2b30022 	movk	x2, #0x9801, lsl #16
	REG32(NF_T2) = 0x5;
	REG32(NF_T1) = 0x2;

	//REG32(NF_MULTI_CH_MODE) = 0x20;
	REG32(NF_MULTI_CH_MODE) = 0x0;
	REG32(NF_PP_RDY) = 0x0;
 3002734:	b900003f 	str	wzr, [x1]

	// set 'reset' command
	REG32(NF_CMD1) = 0xff;
 3002738:	52801fe3 	mov	w3, #0xff                  	// #255
 300273c:	b9000003 	str	w3, [x0]

	// issue command
	REG32(NF_ND_CTL) = 0x80;
 3002740:	52801001 	mov	w1, #0x80                  	// #128

	// polling go bit to until go bit de-assert (command completed)
	if (polling_timeout(NF_ND_CTL, 0x80, 0, 0x10000)) {
 3002744:	52800300 	mov	w0, #0x18                  	// #24
 3002748:	72b30020 	movk	w0, #0x9801, lsl #16

	// set 'reset' command
	REG32(NF_CMD1) = 0xff;

	// issue command
	REG32(NF_ND_CTL) = 0x80;
 300274c:	b9000041 	str	w1, [x2]

	// polling go bit to until go bit de-assert (command completed)
	if (polling_timeout(NF_ND_CTL, 0x80, 0, 0x10000)) {
 3002750:	52a00023 	mov	w3, #0x10000               	// #65536
 3002754:	52800002 	mov	w2, #0x0                   	// #0
 3002758:	94000f27 	bl	30063f4 <polling_timeout>
 300275c:	34000080 	cbz	w0, 300276c <nf_reset+0x94>
		#ifdef NF_DEBUG
		prints("nf_reset timeout\n");
		#endif
		return ERR_NF_RESET_FAIL;	// time-out
 3002760:	52800800 	mov	w0, #0x40                  	// #64
		#endif
		return ERR_NF_RESET_FAIL;	// time-out
	}

	return 0;
}
 3002764:	f84107fe 	ldr	x30, [sp],#16
 3002768:	d65f03c0 	ret
		#endif
		return ERR_NF_RESET_FAIL;	// time-out
	}

	// check ready/busy pin of NAND flash
	if (polling_timeout(NF_ND_CTL, 0x40, 0x40, 0x10000)) {
 300276c:	52800802 	mov	w2, #0x40                  	// #64
 3002770:	52800300 	mov	w0, #0x18                  	// #24
 3002774:	72b30020 	movk	w0, #0x9801, lsl #16
 3002778:	52a00023 	mov	w3, #0x10000               	// #65536
 300277c:	2a0203e1 	mov	w1, w2
 3002780:	94000f1d 	bl	30063f4 <polling_timeout>
 3002784:	35fffee0 	cbnz	w0, 3002760 <nf_reset+0x88>
 3002788:	17fffff7 	b	3002764 <nf_reset+0x8c>

000000000300278c <nf_read_page_c_dma_2K>:
 * return:
 *	0 means success, others means failed
 */
   __attribute__((optimize("O0")))
unsigned int nf_read_page_c_dma_2K(unsigned int page_no, unsigned int dest_addr)
{
 300278c:	f81d0ffe 	str	x30, [sp,#-48]!
 3002790:	b9001fe0 	str	w0, [sp,#28]
 3002794:	b9001be1 	str	w1, [sp,#24]
	unsigned int unit_len;
	int retry_allone = 0;
 3002798:	b9002fff 	str	wzr, [sp,#44]
	int isMLC = 0;
 300279c:	b9002bff 	str	wzr, [sp,#40]
	print_hex(dest_addr);
	prints(")\n");
#endif

retry:
	if (nf_is_6bit_ecc() || nf_is_12bit_ecc()) {
 30027a0:	97ffffb3 	bl	300266c <nf_is_6bit_ecc>
 30027a4:	6b1f001f 	cmp	w0, wzr
 30027a8:	54000081 	b.ne	30027b8 <nf_read_page_c_dma_2K+0x2c>
 30027ac:	97ffffb7 	bl	3002688 <nf_is_12bit_ecc>
 30027b0:	6b1f001f 	cmp	w0, wzr
 30027b4:	54000c60 	b.eq	3002940 <nf_read_page_c_dma_2K+0x1b4>
		unit_len = 512;
 30027b8:	52804000 	mov	w0, #0x200                 	// #512
 30027bc:	b90027e0 	str	w0, [sp,#36]
		//enable random access
		REG32(NF_RND_RW_EN) = 1;
 30027c0:	d2804380 	mov	x0, #0x21c                 	// #540
 30027c4:	f2b30020 	movk	x0, #0x9801, lsl #16
 30027c8:	52800021 	mov	w1, #0x1                   	// #1
 30027cc:	b9000001 	str	w1, [x0]
#else
		return ERR_NF_MLC_NOT_SUPPORT;
#endif
	}

	REG32(NF_DATA_TL0) = unit_len & 0xff;
 30027d0:	d2802000 	mov	x0, #0x100                 	// #256
 30027d4:	f2b30020 	movk	x0, #0x9801, lsl #16
 30027d8:	b94027e1 	ldr	w1, [sp,#36]
 30027dc:	12001c21 	and	w1, w1, #0xff
 30027e0:	b9000001 	str	w1, [x0]
	REG32(NF_DATA_TL1) = (unit_len >> 8) | 0x80;	// set length1, access_mode = 1
 30027e4:	d2802080 	mov	x0, #0x104                 	// #260
 30027e8:	f2b30020 	movk	x0, #0x9801, lsl #16
 30027ec:	b94027e1 	ldr	w1, [sp,#36]
 30027f0:	53087c21 	lsr	w1, w1, #8
 30027f4:	32190021 	orr	w1, w1, #0x80
 30027f8:	b9000001 	str	w1, [x0]

	// set page_len (in unit)
	REG32(NF_PAGE_LEN) = 0x800 / unit_len;
 30027fc:	d2804e00 	mov	x0, #0x270                 	// #624
 3002800:	f2b30020 	movk	x0, #0x9801, lsl #16
 3002804:	52810002 	mov	w2, #0x800                 	// #2048
 3002808:	b94027e1 	ldr	w1, [sp,#36]
 300280c:	1ac10841 	udiv	w1, w2, w1
 3002810:	b9000001 	str	w1, [x0]

	// set PP
	REG32(NF_PP_RDY) = 0x80;	//NAND --> PP --> DRAM
 3002814:	d2804500 	mov	x0, #0x228                 	// #552
 3002818:	f2b30020 	movk	x0, #0x9801, lsl #16
 300281c:	52801001 	mov	w1, #0x80                  	// #128
 3002820:	b9000001 	str	w1, [x0]
	REG32(NF_PP_CTL0) = 0;
 3002824:	d2802200 	mov	x0, #0x110                 	// #272
 3002828:	f2b30020 	movk	x0, #0x9801, lsl #16
 300282c:	b900001f 	str	wzr, [x0]
	REG32(NF_PP_CTL1) = 0;
 3002830:	d2802580 	mov	x0, #0x12c                 	// #300
 3002834:	f2b30020 	movk	x0, #0x9801, lsl #16
 3002838:	b900001f 	str	wzr, [x0]

	// enable blank check
	REG32(NF_BLANK_CHK) = 0x1;
 300283c:	d2800680 	mov	x0, #0x34                  	// #52
 3002840:	f2b30020 	movk	x0, #0x9801, lsl #16
 3002844:	52800021 	mov	w1, #0x1                   	// #1
 3002848:	b9000001 	str	w1, [x0]

	// set command
	REG32(NF_CMD1) = 0x00;
 300284c:	d2800200 	mov	x0, #0x10                  	// #16
 3002850:	f2b30020 	movk	x0, #0x9801, lsl #16
 3002854:	b900001f 	str	wzr, [x0]
	REG32(NF_CMD2) = 0x30;
 3002858:	d2804e80 	mov	x0, #0x274                 	// #628
 300285c:	f2b30020 	movk	x0, #0x9801, lsl #16
 3002860:	52800601 	mov	w1, #0x30                  	// #48
 3002864:	b9000001 	str	w1, [x0]
	REG32(NF_CMD3) = 0x70;
 3002868:	d2800500 	mov	x0, #0x28                  	// #40
 300286c:	f2b30020 	movk	x0, #0x9801, lsl #16
 3002870:	52800e01 	mov	w1, #0x70                  	// #112
 3002874:	b9000001 	str	w1, [x0]

	REG32(NF_RND_CMD1) = 0x5;
 3002878:	d2804100 	mov	x0, #0x208                 	// #520
 300287c:	f2b30020 	movk	x0, #0x9801, lsl #16
 3002880:	528000a1 	mov	w1, #0x5                   	// #5
 3002884:	b9000001 	str	w1, [x0]
	REG32(NF_RND_CMD2) = 0xe0;
 3002888:	d2804180 	mov	x0, #0x20c                 	// #524
 300288c:	f2b30020 	movk	x0, #0x9801, lsl #16
 3002890:	52801c01 	mov	w1, #0xe0                  	// #224
 3002894:	b9000001 	str	w1, [x0]

	// set address
	REG32(NF_PAGE_ADR0) =  (page_no & 0xff);
 3002898:	d2b30020 	mov	x0, #0x98010000            	// #2550202368
 300289c:	b9401fe1 	ldr	w1, [sp,#28]
 30028a0:	12001c21 	and	w1, w1, #0xff
 30028a4:	b9000001 	str	w1, [x0]
	REG32(NF_PAGE_ADR1) =  (page_no >> 8 ) & 0xff;
 30028a8:	d2800080 	mov	x0, #0x4                   	// #4
 30028ac:	f2b30020 	movk	x0, #0x9801, lsl #16
 30028b0:	b9401fe1 	ldr	w1, [sp,#28]
 30028b4:	53087c21 	lsr	w1, w1, #8
 30028b8:	12001c21 	and	w1, w1, #0xff
 30028bc:	b9000001 	str	w1, [x0]
	REG32(NF_PAGE_ADR2) = ((page_no >> 16) & 0x1f) | (0x1 << 5);	// addr_mode = 001
 30028c0:	d2800100 	mov	x0, #0x8                   	// #8
 30028c4:	f2b30020 	movk	x0, #0x9801, lsl #16
 30028c8:	b9401fe1 	ldr	w1, [sp,#28]
 30028cc:	53107c21 	lsr	w1, w1, #16
 30028d0:	12001021 	and	w1, w1, #0x1f
 30028d4:	321b0021 	orr	w1, w1, #0x20
 30028d8:	b9000001 	str	w1, [x0]
	REG32(NF_PAGE_ADR3) = ((page_no >> 21) & 0x7) << 5;
 30028dc:	d2800580 	mov	x0, #0x2c                  	// #44
 30028e0:	f2b30020 	movk	x0, #0x9801, lsl #16
 30028e4:	b9401fe1 	ldr	w1, [sp,#28]
 30028e8:	53157c21 	lsr	w1, w1, #21
 30028ec:	531b6821 	lsl	w1, w1, #5
 30028f0:	12001c21 	and	w1, w1, #0xff
 30028f4:	b9000001 	str	w1, [x0]
	REG32(NF_COL_ADR0)  = 0;
 30028f8:	d2800180 	mov	x0, #0xc                   	// #12
 30028fc:	f2b30020 	movk	x0, #0x9801, lsl #16
 3002900:	b900001f 	str	wzr, [x0]
	REG32(NF_COL_ADR1)  = 0;
 3002904:	d2800780 	mov	x0, #0x3c                  	// #60
 3002908:	f2b30020 	movk	x0, #0x9801, lsl #16
 300290c:	b900001f 	str	wzr, [x0]
	//REG32(NF_RND_SPR_STR_COL_H)=32;				//Set spare address[15:8]

	// set ECC
#ifndef ENV_SIMULATION
	//REG32(NF_MULTI_CH_MODE) = 0x20;
	REG32(NF_MULTI_CH_MODE) = 0x0;
 3002910:	d2804f80 	mov	x0, #0x27c                 	// #636
 3002914:	f2b30020 	movk	x0, #0x9801, lsl #16
 3002918:	b900001f 	str	wzr, [x0]
#endif
	REG32(NF_ECC_STOP) = 0x80;	// set ecc_n_stop
 300291c:	d2804c80 	mov	x0, #0x264                 	// #612
 3002920:	f2b30020 	movk	x0, #0x9801, lsl #16
 3002924:	52801001 	mov	w1, #0x80                  	// #128
 3002928:	b9000001 	str	w1, [x0]
	if (addr_secure_ram(dest_addr)) {
 300292c:	b9401be0 	ldr	w0, [sp,#24]
 3002930:	97ffff5d 	bl	30026a4 <addr_secure_ram>
 3002934:	6b1f001f 	cmp	w0, wzr
 3002938:	54000081 	b.ne	3002948 <nf_read_page_c_dma_2K+0x1bc>
 300293c:	1400000b 	b	3002968 <nf_read_page_c_dma_2K+0x1dc>
			REG32(REG_RMZ_SEED_CTRL) = 0x10;
			REG32(REG_RMZ_CTRL) = 1;
			//REG32(NF_RND_RW_EN) = 0;
		}
#else
		return ERR_NF_MLC_NOT_SUPPORT;
 3002940:	528008a0 	mov	w0, #0x45                  	// #69
 3002944:	1400004f 	b	3002a80 <nf_read_page_c_dma_2K+0x2f4>
	REG32(NF_MULTI_CH_MODE) = 0x0;
#endif
	REG32(NF_ECC_STOP) = 0x80;	// set ecc_n_stop
	if (addr_secure_ram(dest_addr)) {
		//prints("2K SRAM spare\n");
		REG32(NF_SPR_DDR_CTL) = 0x40000000 | ((UINT32)(uintptr_t)nand_spare_dma >> 3);
 3002948:	d2806900 	mov	x0, #0x348                 	// #840
 300294c:	f2b30020 	movk	x0, #0x9801, lsl #16
 3002950:	90000041 	adrp	x1, 300a000 <__FUNCTION__.3108+0x3d8>
 3002954:	9133a021 	add	x1, x1, #0xce8
 3002958:	53037c21 	lsr	w1, w1, #3
 300295c:	32020021 	orr	w1, w1, #0x40000000
 3002960:	b9000001 	str	w1, [x0]
 3002964:	14000006 	b	300297c <nf_read_page_c_dma_2K+0x1f0>
	}
	else {
		//prints("2K DDR spare\n");
		REG32(NF_SPR_DDR_CTL) = 0x40000000 | (SPARE_DMA_ADDR >> 3);
 3002968:	d2806900 	mov	x0, #0x348                 	// #840
 300296c:	f2b30020 	movk	x0, #0x9801, lsl #16
 3002970:	529ffc01 	mov	w1, #0xffe0                	// #65504
 3002974:	72a805a1 	movk	w1, #0x402d, lsl #16
 3002978:	b9000001 	str	w1, [x0]
	}
	sync();
 300297c:	97fff664 	bl	300030c <sync>

	// set DMA
	//REG32(NF_DMA_ADR) = PHYS(dest_addr) >> 3;	// 8 bytes unit
	REG32(NF_DMA_ADR) = dest_addr >> 3;	// 8 bytes unit
 3002980:	d2806080 	mov	x0, #0x304                 	// #772
 3002984:	f2b30020 	movk	x0, #0x9801, lsl #16
 3002988:	b9401be1 	ldr	w1, [sp,#24]
 300298c:	53037c21 	lsr	w1, w1, #3
 3002990:	b9000001 	str	w1, [x0]
	REG32(NF_DMA_LEN) = 0x800 / 0x200;	// 512B unit
 3002994:	d2806100 	mov	x0, #0x308                 	// #776
 3002998:	f2b30020 	movk	x0, #0x9801, lsl #16
 300299c:	52800081 	mov	w1, #0x4                   	// #4
 30029a0:	b9000001 	str	w1, [x0]
		REG32(NF_DMA_CTL5) =0x10;
		REG32(NF_DMA_CTL6) =0x01;
		#endif
	}
	#else
        REG32(NF_DMA_CONF) = 0x3;
 30029a4:	d2806180 	mov	x0, #0x30c                 	// #780
 30029a8:	f2b30020 	movk	x0, #0x9801, lsl #16
 30029ac:	52800061 	mov	w1, #0x3                   	// #3
 30029b0:	b9000001 	str	w1, [x0]
	#endif // NF_SWC

#ifdef ENABLE_MMU
	sys_dcache_flush_all();
 30029b4:	97fff5a1 	bl	3000038 <sys_dcache_flush_all>
#endif
	sync();
 30029b8:	97fff655 	bl	300030c <sync>

	//prints("2K auto trig \n");
	// enable Auto mode
	REG32(NF_AUTO_TRIG) = 0x82;	// read in 2K page size
 30029bc:	d2804000 	mov	x0, #0x200                 	// #512
 30029c0:	f2b30020 	movk	x0, #0x9801, lsl #16
 30029c4:	52801041 	mov	w1, #0x82                  	// #130
 30029c8:	b9000001 	str	w1, [x0]

	wait_done(NF_AUTO_TRIG, 0x80, 0x00); //Wait auto mode done
 30029cc:	52800002 	mov	w2, #0x0                   	// #0
 30029d0:	52801001 	mov	w1, #0x80                  	// #128
 30029d4:	52804000 	mov	w0, #0x200                 	// #512
 30029d8:	72b30020 	movk	w0, #0x9801, lsl #16
 30029dc:	97ffff34 	bl	30026ac <wait_done>
	//while( REG32(NF_AUTO_TRIG) & 0x80 )
		//;
	//prints("2K dma conf\n");
#ifdef ENABLE_MMU
	sys_dcache_flush_all();
 30029e0:	97fff596 	bl	3000038 <sys_dcache_flush_all>
#endif
	sync();
 30029e4:	97fff64a 	bl	300030c <sync>
	// wait DMA done
	#if 0
	wait_done(NF_DMA_CONF, 0x01, 0x00); //Wait auto mode done
	#else
	wait_done(NF_DMA_CONF, 0x01, 0x01);
 30029e8:	52800022 	mov	w2, #0x1                   	// #1
 30029ec:	52800021 	mov	w1, #0x1                   	// #1
 30029f0:	52806180 	mov	w0, #0x30c                 	// #780
 30029f4:	72b30020 	movk	w0, #0x9801, lsl #16
 30029f8:	97ffff2d 	bl	30026ac <wait_done>
	#endif
	//while( REG32(NF_DMA_CONF) & 0x1 )
		//;

	// return OK if all data bit is 1 (page is not written yet)
	if ((REG32(NF_BLANK_CHK) & 0x8)==0){
 30029fc:	d2800680 	mov	x0, #0x34                  	// #52
 3002a00:	f2b30020 	movk	x0, #0x9801, lsl #16
 3002a04:	b9400000 	ldr	w0, [x0]
 3002a08:	121d0000 	and	w0, w0, #0x8
 3002a0c:	6b1f001f 	cmp	w0, wzr
 3002a10:	540000c1 	b.ne	3002a28 <nf_read_page_c_dma_2K+0x29c>
		#ifdef ROM_DEBUG
		prints("==>all one\n");
 3002a14:	f0000020 	adrp	x0, 3009000 <el3_vectors>
 3002a18:	912ca000 	add	x0, x0, #0xb28
 3002a1c:	94000dad 	bl	30060d0 <prints>
		#endif
		return 0;
 3002a20:	52800000 	mov	w0, #0x0                   	// #0
 3002a24:	14000017 	b	3002a80 <nf_read_page_c_dma_2K+0x2f4>
	}
	else if (REG32(NF_ECC_STATE) & 0x8) {
 3002a28:	d2800700 	mov	x0, #0x38                  	// #56
 3002a2c:	f2b30020 	movk	x0, #0x9801, lsl #16
 3002a30:	b9400000 	ldr	w0, [x0]
 3002a34:	121d0000 	and	w0, w0, #0x8
 3002a38:	6b1f001f 	cmp	w0, wzr
 3002a3c:	54000200 	b.eq	3002a7c <nf_read_page_c_dma_2K+0x2f0>
		#ifdef ROM_DEBUG
		prints("2K HW ecc error \n");
 3002a40:	f0000020 	adrp	x0, 3009000 <el3_vectors>
 3002a44:	912ce000 	add	x0, x0, #0xb38
 3002a48:	94000da2 	bl	30060d0 <prints>
		#endif
		if ((isMLC) && (retry_allone == 0)) {
 3002a4c:	b9402be0 	ldr	w0, [sp,#40]
 3002a50:	6b1f001f 	cmp	w0, wzr
 3002a54:	54000100 	b.eq	3002a74 <nf_read_page_c_dma_2K+0x2e8>
 3002a58:	b9402fe0 	ldr	w0, [sp,#44]
 3002a5c:	6b1f001f 	cmp	w0, wzr
 3002a60:	540000a1 	b.ne	3002a74 <nf_read_page_c_dma_2K+0x2e8>
			retry_allone++;
 3002a64:	b9402fe0 	ldr	w0, [sp,#44]
 3002a68:	11000400 	add	w0, w0, #0x1
 3002a6c:	b9002fe0 	str	w0, [sp,#44]
			goto retry;
 3002a70:	17ffff4c 	b	30027a0 <nf_read_page_c_dma_2K+0x14>
		}
		return ERR_NF_READ_ECC_FAIL;	// ECC not correctable
 3002a74:	52800860 	mov	w0, #0x43                  	// #67
 3002a78:	14000002 	b	3002a80 <nf_read_page_c_dma_2K+0x2f4>
	}
	else
		return 0;
 3002a7c:	52800000 	mov	w0, #0x0                   	// #0
}
 3002a80:	f84307fe 	ldr	x30, [sp],#48
 3002a84:	d65f03c0 	ret

0000000003002a88 <nf_get_flash_profile_c.constprop.3>:
 *	page_increment: page increment within loop
 * return:
 *	0 means success, others means failed
 *
 */
static int nf_get_flash_profile_c(unsigned int profile_page_no_limit, unsigned int page_increment)
 3002a88:	d12043ff 	sub	sp, sp, #0x810
	unsigned int checksum1, checksum2;
#ifdef NF_DEBUG
	unsigned int value;
#endif
	t_nand_profile *profile;
	unsigned char magic[8] = {0x52, 0x45, 0x41, 0x4c, 0x54, 0x45, 0x4b, 0x2e};
 3002a8c:	528008a1 	mov	w1, #0x45                  	// #69
 3002a90:	52800a47 	mov	w7, #0x52                  	// #82
 3002a94:	52800826 	mov	w6, #0x41                  	// #65
 3002a98:	52800985 	mov	w5, #0x4c                  	// #76
 3002a9c:	52800a84 	mov	w4, #0x54                  	// #84
 *	page_increment: page increment within loop
 * return:
 *	0 means success, others means failed
 *
 */
static int nf_get_flash_profile_c(unsigned int profile_page_no_limit, unsigned int page_increment)
 3002aa0:	a9bc53f3 	stp	x19, x20, [sp,#-64]!
	unsigned int checksum1, checksum2;
#ifdef NF_DEBUG
	unsigned int value;
#endif
	t_nand_profile *profile;
	unsigned char magic[8] = {0x52, 0x45, 0x41, 0x4c, 0x54, 0x45, 0x4b, 0x2e};
 3002aa4:	52800963 	mov	w3, #0x4b                  	// #75
 3002aa8:	528005c2 	mov	w2, #0x2e                  	// #46
 *	page_increment: page increment within loop
 * return:
 *	0 means success, others means failed
 *
 */
static int nf_get_flash_profile_c(unsigned int profile_page_no_limit, unsigned int page_increment)
 3002aac:	a9015bf5 	stp	x21, x22, [sp,#16]
#endif
	t_nand_profile *profile;
	unsigned char magic[8] = {0x52, 0x45, 0x41, 0x4c, 0x54, 0x45, 0x4b, 0x2e};
	__attribute__((aligned (8))) unsigned char tmp_buf[2048];

	g_PageSize = g_BlockSize = g_PagePerBlock = g_BlockPerFlash = 0;
 3002ab0:	90000056 	adrp	x22, 300a000 <__FUNCTION__.3108+0x3d8>
 3002ab4:	9134a2c0 	add	x0, x22, #0xd28
 *	page_increment: page increment within loop
 * return:
 *	0 means success, others means failed
 *
 */
static int nf_get_flash_profile_c(unsigned int profile_page_no_limit, unsigned int page_increment)
 3002ab8:	a90263f7 	stp	x23, x24, [sp,#32]
 3002abc:	f9001bfe 	str	x30, [sp,#48]
 3002ac0:	910143f5 	add	x21, sp, #0x50
	unsigned int checksum1, checksum2;
#ifdef NF_DEBUG
	unsigned int value;
#endif
	t_nand_profile *profile;
	unsigned char magic[8] = {0x52, 0x45, 0x41, 0x4c, 0x54, 0x45, 0x4b, 0x2e};
 3002ac4:	390123e7 	strb	w7, [sp,#72]
 3002ac8:	2a1503f4 	mov	w20, w21
 3002acc:	390127e1 	strb	w1, [sp,#73]
	__attribute__((aligned (8))) unsigned char tmp_buf[2048];

	g_PageSize = g_BlockSize = g_PagePerBlock = g_BlockPerFlash = 0;

	for (page_no = 0; page_no < profile_page_no_limit; page_no += page_increment) {
 3002ad0:	52800013 	mov	w19, #0x0                   	// #0
	unsigned int checksum1, checksum2;
#ifdef NF_DEBUG
	unsigned int value;
#endif
	t_nand_profile *profile;
	unsigned char magic[8] = {0x52, 0x45, 0x41, 0x4c, 0x54, 0x45, 0x4b, 0x2e};
 3002ad4:	39012be6 	strb	w6, [sp,#74]

			profile = (t_nand_profile *)tmp_buf;

			// calculate byte checksum
			checksum1 = calculate_image_checksum((UINT32)(uintptr_t)tmp_buf, offsetof(t_nand_profile, checksum));
			copy_memory(&checksum2, profile->checksum, sizeof(checksum2));
 3002ad8:	910202b7 	add	x23, x21, #0x80
	unsigned int checksum1, checksum2;
#ifdef NF_DEBUG
	unsigned int value;
#endif
	t_nand_profile *profile;
	unsigned char magic[8] = {0x52, 0x45, 0x41, 0x4c, 0x54, 0x45, 0x4b, 0x2e};
 3002adc:	39012fe5 	strb	w5, [sp,#75]
 3002ae0:	390133e4 	strb	w4, [sp,#76]
 3002ae4:	390137e1 	strb	w1, [sp,#77]
 3002ae8:	39013be3 	strb	w3, [sp,#78]
 3002aec:	39013fe2 	strb	w2, [sp,#79]
	__attribute__((aligned (8))) unsigned char tmp_buf[2048];

	g_PageSize = g_BlockSize = g_PagePerBlock = g_BlockPerFlash = 0;
 3002af0:	b90d2adf 	str	wzr, [x22,#3368]
 3002af4:	b900041f 	str	wzr, [x0,#4]
 3002af8:	b900081f 	str	wzr, [x0,#8]
 3002afc:	b9000c1f 	str	wzr, [x0,#12]
 3002b00:	14000004 	b	3002b10 <nf_get_flash_profile_c.constprop.3+0x88>

	for (page_no = 0; page_no < profile_page_no_limit; page_no += page_increment) {
 3002b04:	11030273 	add	w19, w19, #0xc0
 3002b08:	7106027f 	cmp	w19, #0x180
 3002b0c:	54000780 	b.eq	3002bfc <nf_get_flash_profile_c.constprop.3+0x174>
		#ifdef NF_DEBUG
        	rom_debug_val("page no", page_no);
		#endif

		if (nf_read_page_c_dma_2K(page_no, (UINT32)(uintptr_t)tmp_buf)) {
 3002b10:	2a1403e1 	mov	w1, w20
 3002b14:	2a1303e0 	mov	w0, w19
 3002b18:	97ffff1d 	bl	300278c <nf_read_page_c_dma_2K>
 3002b1c:	35ffff40 	cbnz	w0, 3002b04 <nf_get_flash_profile_c.constprop.3+0x7c>
		copy_memory(&value, tmp_buf, sizeof(value));
		rom_debug_val("profile->identifier", value);
		#endif

		// check profile identifier: "REALTEK." in little-endian
		if (compare_memory(magic, tmp_buf, sizeof(magic)) == sizeof(magic)) {
 3002b20:	52800102 	mov	w2, #0x8                   	// #8
 3002b24:	aa1503e1 	mov	x1, x21
 3002b28:	910123e0 	add	x0, sp, #0x48
 3002b2c:	94001207 	bl	3007348 <compare_memory>
 3002b30:	7100201f 	cmp	w0, #0x8
 3002b34:	54fffe81 	b.ne	3002b04 <nf_get_flash_profile_c.constprop.3+0x7c>
			#endif

			profile = (t_nand_profile *)tmp_buf;

			// calculate byte checksum
			checksum1 = calculate_image_checksum((UINT32)(uintptr_t)tmp_buf, offsetof(t_nand_profile, checksum));
 3002b38:	52801001 	mov	w1, #0x80                  	// #128
 3002b3c:	2a1403e0 	mov	w0, w20
 3002b40:	940012ca 	bl	3007668 <calculate_image_checksum>
 3002b44:	2a0003f8 	mov	w24, w0
			copy_memory(&checksum2, profile->checksum, sizeof(checksum2));
 3002b48:	52800082 	mov	w2, #0x4                   	// #4
 3002b4c:	aa1703e1 	mov	x1, x23
 3002b50:	910113e0 	add	x0, sp, #0x44
 3002b54:	94001230 	bl	3007414 <copy_memory>
			rom_debug_val("calculate_image_checksum", checksum1);
			rom_debug_val("profile->checksum", checksum2);
			#endif

			// verify
			if (checksum1 == checksum2) {
 3002b58:	b94047e0 	ldr	w0, [sp,#68]
 3002b5c:	6b00031f 	cmp	w24, w0
 3002b60:	54fffd21 	b.ne	3002b04 <nf_get_flash_profile_c.constprop.3+0x7c>
				// get NAND flash info
				g_PageSize = profile->data_per_page;
 3002b64:	9134a2d4 	add	x20, x22, #0xd28
 3002b68:	b940abe1 	ldr	w1, [sp,#168]
 3002b6c:	90000053 	adrp	x19, 300a000 <__FUNCTION__.3108+0x3d8>
     				if (g_PageSize > Page_Size_Max)     faultDetect();
 3002b70:	7140043f 	cmp	w1, #0x1, lsl #12
			#endif

			// verify
			if (checksum1 == checksum2) {
				// get NAND flash info
				g_PageSize = profile->data_per_page;
 3002b74:	b9000e81 	str	w1, [x20,#12]
     				if (g_PageSize > Page_Size_Max)     faultDetect();
 3002b78:	54000908 	b.hi	3002c98 <nf_get_flash_profile_c.constprop.3+0x210>
				g_PagePerBlock = profile->page_per_block;
 3002b7c:	b940b3e0 	ldr	w0, [sp,#176]
 3002b80:	b9000680 	str	w0, [x20,#4]
				if (g_PagePerBlock > Page_per_block_Size_Max)  faultDetect();
 3002b84:	7104001f 	cmp	w0, #0x100
 3002b88:	54000888 	b.hi	3002c98 <nf_get_flash_profile_c.constprop.3+0x210>
				g_BlockSize = g_PagePerBlock * g_PageSize;
				if (g_BlockSize > Block_Size_Max)   faultDetect();
				g_BlockPerFlash = profile->block_per_die;
 3002b8c:	b940b7e2 	ldr	w2, [sp,#180]
				// get NAND flash info
				g_PageSize = profile->data_per_page;
     				if (g_PageSize > Page_Size_Max)     faultDetect();
				g_PagePerBlock = profile->page_per_block;
				if (g_PagePerBlock > Page_per_block_Size_Max)  faultDetect();
				g_BlockSize = g_PagePerBlock * g_PageSize;
 3002b90:	1b017c00 	mul	w0, w0, w1
 3002b94:	b9000a80 	str	w0, [x20,#8]
				if (g_BlockSize > Block_Size_Max)   faultDetect();
				g_BlockPerFlash = profile->block_per_die;
				if (g_BlockPerFlash > Block_PerFlash_Max)   faultDetect();
 3002b98:	7140045f 	cmp	w2, #0x1, lsl #12
     				if (g_PageSize > Page_Size_Max)     faultDetect();
				g_PagePerBlock = profile->page_per_block;
				if (g_PagePerBlock > Page_per_block_Size_Max)  faultDetect();
				g_BlockSize = g_PagePerBlock * g_PageSize;
				if (g_BlockSize > Block_Size_Max)   faultDetect();
				g_BlockPerFlash = profile->block_per_die;
 3002b9c:	b90d2a62 	str	w2, [x19,#3368]
				if (g_BlockPerFlash > Block_PerFlash_Max)   faultDetect();
 3002ba0:	540007c8 	b.hi	3002c98 <nf_get_flash_profile_c.constprop.3+0x210>
				value = nf_get_spare();
				rom_debug_val("spare", value);
				#endif

				#ifdef ROM_DEBUG
				rom_debug_val("g_BlockPerFlash", g_BlockPerFlash);
 3002ba4:	f0000020 	adrp	x0, 3009000 <el3_vectors>
 3002ba8:	913bc000 	add	x0, x0, #0xef0
 3002bac:	f0000035 	adrp	x21, 3009000 <el3_vectors>
 3002bb0:	913c02b5 	add	x21, x21, #0xf00
 3002bb4:	94000d47 	bl	30060d0 <prints>
 3002bb8:	aa1503e0 	mov	x0, x21
 3002bbc:	94000d45 	bl	30060d0 <prints>
 3002bc0:	b94d2a60 	ldr	w0, [x19,#3368]
 3002bc4:	f0000033 	adrp	x19, 3009000 <el3_vectors>
 3002bc8:	91396273 	add	x19, x19, #0xe58
 3002bcc:	94000d73 	bl	3006198 <print_hex>
 3002bd0:	aa1303e0 	mov	x0, x19
 3002bd4:	94000d3f 	bl	30060d0 <prints>
				rom_debug_val("g_BlockSize", g_BlockSize);
 3002bd8:	f0000020 	adrp	x0, 3009000 <el3_vectors>
 3002bdc:	913c2000 	add	x0, x0, #0xf08
 3002be0:	94000d3c 	bl	30060d0 <prints>
 3002be4:	aa1503e0 	mov	x0, x21
 3002be8:	94000d3a 	bl	30060d0 <prints>
 3002bec:	b9400a80 	ldr	w0, [x20,#8]
 3002bf0:	94000d6a 	bl	3006198 <print_hex>
 3002bf4:	aa1303e0 	mov	x0, x19
 3002bf8:	94000d36 	bl	30060d0 <prints>
			}
		}
	}

	loopsTrap();
	if ( (g_PageSize == 0) || (g_BlockSize == 0) || (g_PagePerBlock == 0) || (g_BlockPerFlash == 0) ) {
 3002bfc:	9134a2d6 	add	x22, x22, #0xd28
				break;
			}
		}
	}

	loopsTrap();
 3002c00:	940012f0 	bl	30077c0 <loopsTrap>
	if ( (g_PageSize == 0) || (g_BlockSize == 0) || (g_PagePerBlock == 0) || (g_BlockPerFlash == 0) ) {
 3002c04:	90000042 	adrp	x2, 300a000 <__FUNCTION__.3108+0x3d8>
 3002c08:	b9400ec0 	ldr	w0, [x22,#12]
 3002c0c:	34000320 	cbz	w0, 3002c70 <nf_get_flash_profile_c.constprop.3+0x1e8>
 3002c10:	b9400ac1 	ldr	w1, [x22,#8]
 3002c14:	340002e1 	cbz	w1, 3002c70 <nf_get_flash_profile_c.constprop.3+0x1e8>
 3002c18:	b94006c3 	ldr	w3, [x22,#4]
 3002c1c:	340002a3 	cbz	w3, 3002c70 <nf_get_flash_profile_c.constprop.3+0x1e8>
 3002c20:	b94d2844 	ldr	w4, [x2,#3368]
 3002c24:	34000264 	cbz	w4, 3002c70 <nf_get_flash_profile_c.constprop.3+0x1e8>
		#ifdef ROM_DEBUG
		prints("\nno profile\n");
		#endif
		return -1;
	}
	else if ((g_PageSize >Page_Size_Max)||(g_PagePerBlock >Page_per_block_Size_Max)||(g_BlockSize >Block_Size_Max)||(g_BlockPerFlash >Block_PerFlash_Max)) {
 3002c28:	7140041f 	cmp	w0, #0x1, lsl #12
		return -1;
	}
	else {
		return 0;
	}
}
 3002c2c:	f9401bfe 	ldr	x30, [sp,#48]
		#ifdef ROM_DEBUG
		prints("\nno profile\n");
		#endif
		return -1;
	}
	else if ((g_PageSize >Page_Size_Max)||(g_PagePerBlock >Page_per_block_Size_Max)||(g_BlockSize >Block_Size_Max)||(g_BlockPerFlash >Block_PerFlash_Max)) {
 3002c30:	1a9f97e5 	cset	w5, hi
 3002c34:	7104007f 	cmp	w3, #0x100
 3002c38:	1a9f97e2 	cset	w2, hi
 3002c3c:	7140049f 	cmp	w4, #0x1, lsl #12
 3002c40:	1a9f97e0 	cset	w0, hi
 3002c44:	7144003f 	cmp	w1, #0x100, lsl #12
 3002c48:	1a9f97e1 	cset	w1, hi
 3002c4c:	2a0200a2 	orr	w2, w5, w2
		return -1;
	}
	else {
		return 0;
	}
}
 3002c50:	a9415bf5 	ldp	x21, x22, [sp,#16]
 3002c54:	a94263f7 	ldp	x23, x24, [sp,#32]
 3002c58:	2a010000 	orr	w0, w0, w1
 3002c5c:	a8c453f3 	ldp	x19, x20, [sp],#64
		#ifdef ROM_DEBUG
		prints("\nno profile\n");
		#endif
		return -1;
	}
	else if ((g_PageSize >Page_Size_Max)||(g_PagePerBlock >Page_per_block_Size_Max)||(g_BlockSize >Block_Size_Max)||(g_BlockPerFlash >Block_PerFlash_Max)) {
 3002c60:	2a000040 	orr	w0, w2, w0
 3002c64:	4b0003e0 	neg	w0, w0
		return -1;
	}
	else {
		return 0;
	}
}
 3002c68:	912043ff 	add	sp, sp, #0x810
 3002c6c:	d65f03c0 	ret
	}

	loopsTrap();
	if ( (g_PageSize == 0) || (g_BlockSize == 0) || (g_PagePerBlock == 0) || (g_BlockPerFlash == 0) ) {
		#ifdef ROM_DEBUG
		prints("\nno profile\n");
 3002c70:	f0000020 	adrp	x0, 3009000 <el3_vectors>
 3002c74:	913c6000 	add	x0, x0, #0xf18
 3002c78:	94000d16 	bl	30060d0 <prints>
		return -1;
	}
	else {
		return 0;
	}
}
 3002c7c:	f9401bfe 	ldr	x30, [sp,#48]
	loopsTrap();
	if ( (g_PageSize == 0) || (g_BlockSize == 0) || (g_PagePerBlock == 0) || (g_BlockPerFlash == 0) ) {
		#ifdef ROM_DEBUG
		prints("\nno profile\n");
		#endif
		return -1;
 3002c80:	12800000 	mov	w0, #0xffffffff            	// #-1
		return -1;
	}
	else {
		return 0;
	}
}
 3002c84:	a9415bf5 	ldp	x21, x22, [sp,#16]
 3002c88:	a94263f7 	ldp	x23, x24, [sp,#32]
 3002c8c:	a8c453f3 	ldp	x19, x20, [sp],#64
 3002c90:	912043ff 	add	sp, sp, #0x810
 3002c94:	d65f03c0 	ret

			// verify
			if (checksum1 == checksum2) {
				// get NAND flash info
				g_PageSize = profile->data_per_page;
     				if (g_PageSize > Page_Size_Max)     faultDetect();
 3002c98:	9400118d 	bl	30072cc <faultDetect>

0000000003002c9c <nf_identify.constprop.0>:
	}

	return 0;
}

static int nf_identify(unsigned int retry_page_size)
 3002c9c:	a9bd53f3 	stp	x19, x20, [sp,#-48]!
	return 0;
#endif

	//Set data transfer count, data transfer count must be 0x200 at auto mode
	//Set SRAM path and access mode
	REG32(NF_DATA_TL0) = 8;
 3002ca0:	d2802001 	mov	x1, #0x100                 	// #256
 3002ca4:	f2b30021 	movk	x1, #0x9801, lsl #16
	REG32(NF_DATA_TL1) = 0x80;	// transfer mode
 3002ca8:	d2802080 	mov	x0, #0x104                 	// #260
 3002cac:	f2b30020 	movk	x0, #0x9801, lsl #16
	}

	return 0;
}

static int nf_identify(unsigned int retry_page_size)
 3002cb0:	a9015bf5 	stp	x21, x22, [sp,#16]
 3002cb4:	f90013fe 	str	x30, [sp,#32]
	//Set SRAM path and access mode
	REG32(NF_DATA_TL0) = 8;
	REG32(NF_DATA_TL1) = 0x80;	// transfer mode

	//Set PP
	REG32(NF_PP_RDY) = 0;		// NOt through PP
 3002cb8:	d2804502 	mov	x2, #0x228                 	// #552
 3002cbc:	f2b30022 	movk	x2, #0x9801, lsl #16
	return 0;
#endif

	//Set data transfer count, data transfer count must be 0x200 at auto mode
	//Set SRAM path and access mode
	REG32(NF_DATA_TL0) = 8;
 3002cc0:	52800103 	mov	w3, #0x8                   	// #8
	REG32(NF_DATA_TL1) = 0x80;	// transfer mode

	//Set PP
	REG32(NF_PP_RDY) = 0;		// NOt through PP
	REG32(NF_PP_CTL0) = 0x01;
 3002cc4:	d2802215 	mov	x21, #0x110                 	// #272
 3002cc8:	f2b30035 	movk	x21, #0x9801, lsl #16
	return 0;
#endif

	//Set data transfer count, data transfer count must be 0x200 at auto mode
	//Set SRAM path and access mode
	REG32(NF_DATA_TL0) = 8;
 3002ccc:	b9000023 	str	w3, [x1]
	REG32(NF_DATA_TL1) = 0x80;	// transfer mode
 3002cd0:	52801013 	mov	w19, #0x80                  	// #128
 3002cd4:	b9000013 	str	w19, [x0]
	REG32(NF_PP_RDY) = 0;		// NOt through PP
	REG32(NF_PP_CTL0) = 0x01;
	REG32(NF_PP_CTL1) = 0;

	//Set command
	REG32(NF_CMD1) = 0x90;
 3002cd8:	d2800200 	mov	x0, #0x10                  	// #16
 3002cdc:	f2b30020 	movk	x0, #0x9801, lsl #16
	//Set SRAM path and access mode
	REG32(NF_DATA_TL0) = 8;
	REG32(NF_DATA_TL1) = 0x80;	// transfer mode

	//Set PP
	REG32(NF_PP_RDY) = 0;		// NOt through PP
 3002ce0:	b900005f 	str	wzr, [x2]
	REG32(NF_PP_CTL0) = 0x01;
	REG32(NF_PP_CTL1) = 0;

	//Set command
	REG32(NF_CMD1) = 0x90;
	REG32(NF_ND_CTL) = 0x80;
 3002ce4:	d2800314 	mov	x20, #0x18                  	// #24
 3002ce8:	f2b30034 	movk	x20, #0x9801, lsl #16
	REG32(NF_DATA_TL0) = 8;
	REG32(NF_DATA_TL1) = 0x80;	// transfer mode

	//Set PP
	REG32(NF_PP_RDY) = 0;		// NOt through PP
	REG32(NF_PP_CTL0) = 0x01;
